ccollections
defaultdict
p0
(c__builtin__
dict
p1
tp2
Rp3
S'Or47a'
p4
(dp5
I512
F0.2438791991
sI519
F0.0188116535
sI8
F0.094754475
sI525
F0.0188116535
sI15
F0.0404998594
sI16
F0.2564544852
sI205
F0.1836313013
sI19
F0.0849956456
sI21
F0.0849956456
sI22
F0.5907434247
sI26
F0.046515974
sI539
F0.0899307785
sI541
F0.2984814153
sI550
F0.1217735939
sI45
F0.1835403727
sI559
F0.1343006794
sI48
F0.8314236975
sI49
F0.10190213
sI51
F0.0941788345
sI55
F0.1041004736
sI56
F0.1407988143
sI57
F0.8025161112
sI58
F0.0899307785
sI60
F0.046515974
sI61
F0.2045019171
sI62
F0.034460659
sI63
F0.2245323706
sI73
F0.377747116
sI74
F0.1343006794
sI75
F0.2836820965
sI78
F0.2286174403
sI80
F0.5837136974
sI83
F0.0228571419
sI84
F0.0248798861
sI91
F0.2118295115
sI93
F0.647727869
sI95
F0.4620662259
sI99
F0.0747519752
sI107
F0.1764515625
sI111
F0.0890957427
sI112
F0.014766165
sI114
F0.0105741364
sI116
F0.7410078284
sI123
F0.1383595316
sI124
F0.0747519752
sI141
F0.1423654866
sI145
F0.2988157404
sI155
F0.0639321332
sI538
F0.0024239451
sI160
F0.126011327
sI167
F0.4935245139
sI173
F0.139748397
sI174
F0.0582706168
sI691
F0.0374831508
sI701
F0.3017568727
sI191
F0.0208343977
sI193
F0.2929025431
sI706
F0.0289253746
sI198
F0.0133187969
sI200
F0.47288934
sI202
F0.1217735939
sI204
F0.0167880993
sI717
F0.0248798861
sI207
F0.0994751857
sI416
F0.094754475
sI217
F0.495556256
sI229
F0.0187662228
sI237
F0.126011327
sI239
F0.0390866677
sI254
F0.2342833548
sI767
F0.0050753517
sI768
F0.1976477741
sI808
F0.1800567371
sI297
F0.0435107966
sI312
F0.5857051595
sI374
F0.0167889092
sI380
F0.1199171342
sI904
F0.1383595316
sI407
F0.0167889092
sI405
F0.0208343977
sI919
F0.0046524439
sI408
F0.0167889092
sI921
F0.0066751881
sI410
F0.0188116535
sI926
F0.0228571419
sI927
F0.0208343977
sI928
F0.0269026304
sI929
F0.1130912714
sI930
F0.0849956456
sI931
F0.1086371298
sI933
F0.0747519752
sI934
F0.6856638776
sI935
F0.0435107966
sI936
F0.014766165
sI938
F0.034460659
sI940
F0.0374831508
sI941
F0.034460659
sI942
F0.0639321332
sI431
F0.0374831508
sI944
F0.0228571419
sI945
F0.1041004736
sI947
F0.126011327
sI952
F0.007871371
sI443
F0.1679647196
sI956
F0.0639321332
sI957
F0.0435107966
sI447
F0.1217735939
sI448
F0.1502301075
sI449
F0.0899307785
sI453
F0.0208343977
sI966
F0.0694207152
sI967
F0.046515974
sI968
F0.146321453
sI969
F0.0269026304
sI970
F0.0269026304
sI979
F0.2470456334
sI980
F0.1691438258
sI994
F0.0550764357
sI500
F0.680476616
sI426
F0.0
ssS'Or47b'
p6
(dp7
I512
F0.0801828303
sI519
F0.1589244313
sI8
F0.1589244313
sI525
F0.1908109788
sI15
F0.0401233796
sI16
F0.0485579046
sI205
F0.2444385651
sI19
F0.1174718774
sI21
F0.1300278337
sI22
F0.1265983062
sI23
F0.1048319045
sI26
F0.1088328633
sI539
F0.113187516
sI541
F0.0861600193
sI550
F0.1300278337
sI45
F0.1674651074
sI559
F0.1216990362
sI48
F0.092032585
sI51
F0.1401680316
sI55
F0.0801828303
sI56
F0.0853856767
sI57
F0.0046358412
sI58
F0.0747179814
sI60
F0.0903743237
sI61
F0.0915201463
sI62
F0.1464684345
sI63
F0.0587630795
sI73
F0.1541056077
sI74
F0.1464684345
sI75
F0.1157302351
sI78
F0.0951861142
sI83
F0.1763511427
sI84
F0.1631613558
sI91
F0.0338852395
sI93
F0.087034438
sI95
F0.0046358412
sI99
F0.113187516
sI107
F0.1763511427
sI112
F0.1763511427
sI114
F0.0998509028
sI116
F0.0244937662
sI123
F0.0998509028
sI124
F0.0998509028
sI141
F0.0689282819
sI145
F0.0160661524
sI155
F0.1857882525
sI160
F0.1043930585
sI167
F0.0853856767
sI173
F0.2768061196
sI174
F0.1300278337
sI691
F0.2787476407
sI701
F0.031817125
sI191
F0.1674651074
sI193
F0.0485579046
sI706
F0.1674651074
sI200
F0.0485579046
sI202
F0.031817125
sI204
F0.2642688628
sI717
F0.1631613558
sI207
F0.0853856767
sI416
F0.1631613558
sI229
F0.164081173
sI237
F0.1718542049
sI239
F0.2048537647
sI254
F0.0046358412
sI767
F0.0747179814
sI768
F0.031817125
sI808
F0.0160661524
sI297
F0.1043930585
sI312
F0.0689282819
sI374
F0.1809839163
sI380
F0.157561955
sI904
F0.0244937662
sI407
F0.1809839163
sI405
F0.1908109788
sI919
F0.0853856767
sI408
F0.1464684345
sI921
F0.1258807552
sI410
F0.1718542049
sI926
F0.1763511427
sI927
F0.1088328633
sI928
F0.1043930585
sI929
F0.1088328633
sI930
F0.1088328633
sI931
F0.1258807552
sI933
F0.1043930585
sI934
F0.0801828303
sI935
F0.1674651074
sI936
F0.2079619663
sI938
F0.1857882525
sI940
F0.19611531
sI941
F0.1674651074
sI942
F0.1589244313
sI431
F0.113187516
sI944
F0.1631613558
sI945
F0.1341504156
sI947
F0.1547387149
sI956
F0.0
sI957
F0.1258807552
sI447
F0.085300583
sI448
F0.0115139444
sI449
F0.1216990362
sI453
F0.2227112873
sI966
F0.1043930585
sI967
F0.0998509028
sI968
F0.0244937662
sI969
F0.1908109788
sI970
F0.1464684345
sI971
F0.1094551182
sI972
F0.2061285651
sI979
F0.0979120614
sI980
F0.1258807552
sI994
F0.2206433576
sI500
F0.031817125
ssS'Gr21a'
p8
(dp9
I473
F0.237130953
sI5
F0.2754818731
sI520
F0.249848544
sI173
F0.2425083531
sI22
F0.2233946406
sI23
F0.2819325878
sI920
F0.235412076
sI998
F0.3474261684
sI538
F0.218174257
sI111
F0.249848544
sI541
F0.1924683982
sI928
F0.218174257
sI966
F0.2056141557
sI295
F0.3013895423
sI426
F0.218174257
sI45
F0.2884006403
sI48
F0.3267937503
sI49
F0.2884006403
sI178
F0.3876392435
sI51
F0.2884006403
sI952
F0.2244774383
sI443
F0.1682914524
sI706
F0.3540786513
sI198
F0.2690483025
sI967
F0.2056141557
sI15
F0.218174257
sI73
F0.2952441236
sI970
F0.006942659
sI75
F0.301638841
sI204
F0.3030727458
sI56
F0.2754818731
sI211
F0.3013895423
sI84
F0.3013895423
sI217
F0.2056141557
sI91
F0.0
sI604
F0.3474261684
sI95
F0.2307962771
sI994
F0.9729574223
sI229
F0.3808866391
sI614
F0.2244774383
sI999
F0.2690483025
sI237
F0.2244774383
sI110
F0.218174257
sI239
F0.2542390701
sI114
F0.2296386143
sI83
F0.249848544
sI116
F0.3808866391
sI380
F0.2056315874
sI767
F0.4080220827
ssS'Or71a'
p10
(dp11
I706
F0.0089061959
sI229
F0.006287255
sI198
F0.9462319462
sI8
F0.0296160926
sI73
F0.008139166
sI972
F0.1124556793
sI173
F0.006287255
sI56
F0.0192611442
sI178
F0.0244386184
sI51
F0.0396736977
sI22
F0.0634668138
sI217
F0.0157790844
sI952
F0.0
sI825
F0.3548582834
sI58
F0.0192611442
sI380
F0.0089061959
sI95
F0.0247532942
ssS'Or30a'
p12
(dp13
I173
F0.0295920846
sI22
F0.0551149621
sI538
F0.0415457767
sI111
F0.0210453535
sI541
F0.0176383926
sI426
F0.0465682309
sI45
F0.3752909508
sI48
F0.0329990455
sI49
F0.7109842568
sI51
F0.5974513502
sI56
F0.0448940795
sI443
F0.0228954789
sI198
F0.6497426383
sI73
F0.0295334266
sI75
F0.0227195049
sI204
F0.0893450488
sI952
F0.0227195049
sI217
F0.0347318549
sI91
F0.0431612701
sI95
F0.0262437818
sI994
F0.0212213275
sI229
F0.0142900898
sI239
F0.00741751
sI114
F0.0
sI116
F0.0670444105
sI380
F0.0278592752
sI767
F0.7273667566
ssS'Or45b'
p14
(dp15
I173
F0.0754091826
sI22
F0.0823118625
sI538
F0.0264805088
sI111
F0.0282087629
sI541
F0.092361626
sI426
F0.0399877906
sI45
F0.92163862
sI48
F0.0805121477
sI49
F0.4521679305
sI51
F0.7763531735
sI56
F0.1601364268
sI443
F0.1006584277
sI198
F0.3423675322
sI73
F0.0520006132
sI75
F0.0434437211
sI204
F0.0180791149
sI952
F0.0
sI217
F0.0434437211
sI91
F0.1110383427
sI95
F0.0163503352
sI994
F0.0111628772
sI229
F0.0688056995
sI239
F0.0298572885
sI114
F0.0281290231
sI116
F0.0585991626
sI380
F0.0721822034
sI767
F0.9550386932
ssS'Or45a'
p16
(dp17
I173
F0.3292019174
sI22
F0.5615752201
sI538
F0.3045510213
sI111
F0.866261377
sI541
F0.175983771
sI426
F0.0387040108
sI45
F0.179506171
sI48
F0.5721670153
sI49
F0.0703569065
sI51
F0.1196771907
sI56
F0.1989196614
sI443
F0.4823572881
sI198
F0.0756001909
sI73
F0.1196498373
sI75
F0.1495787254
sI204
F0.0
sI952
F0.1196498373
sI217
F0.251724172
sI91
F0.3098200556
sI95
F0.2024148053
sI994
F0.1143246496
sI229
F0.1671640733
sI124
F0.2906269857
sI239
F0.1020358742
sI114
F0.0387408952
sI116
F0.2393837252
sI380
F0.0985404355
sI767
F0.0755727036
ssS'Or24a'
p18
(dp19
I173
F0.0493073023
sI22
F0.0427329953
sI538
F0.0394458418
sI111
F0.0394458418
sI541
F0.0854659906
sI426
F0.0295843814
sI45
F0.8316498316
sI48
F0.0230100744
sI49
F0.7954911433
sI51
F0.5884004738
sI56
F0.1051889115
sI443
F0.0131486139
sI198
F0.0558816092
sI73
F0.0788916836
sI75
F0.0230100744
sI204
F0.2531108183
sI952
F0.0131486139
sI217
F0.0394458418
sI91
F0.101901758
sI95
F0.0
sI994
F0.0525944558
sI229
F0.0197229209
sI239
F0.0756045301
sI114
F0.0591687627
sI116
F0.0723173767
sI380
F0.0953274511
sI767
F0.1512090603
ssS'Or67d'
p20
(dp21
I995
F0.0125892857
sI996
F0.3961607143
sI997
F0.2514285714
ssS'ab3B'
p22
(dp23
I8
F0.0936293818
sI237
F0.0105489046
sI656
F0.0580337288
sI785
F0.0841527504
sI367
F0.113908411
sI20
F0.0311582741
sI22
F0.5775821741
sI919
F0.0723859094
sI920
F0.1204984259
sI201
F0.164416666
sI923
F0.0653406275
sI541
F0.2901978893
sI164
F0.0580337288
sI934
F0.072551884
sI426
F0.0796692684
sI173
F0.177483713
sI559
F0.0866945268
sI48
F0.2707473065
sI945
F0.1004755331
sI178
F0.072551884
sI51
F0.0311582741
sI73
F0.0597313574
sI56
F0.0796692684
sI58
F0.0285058578
sI191
F0.0866945268
sI448
F0.113908411
sI706
F0.0285058578
sI198
F0.2048321166
sI972
F0.033812896
sI202
F0.0431258024
sI75
F0.0732515129
sI204
F0.0491005208
sI45
F0.0258556342
sI78
F0.0021097809
sI979
F0.0
sI217
F0.5480487434
sI91
F0.4489146177
sI95
F0.0580337288
sI994
F0.0522985229
sI229
F0.0210978092
sI614
F0.0189880283
sI620
F0.0285058578
sI109
F0.0431258024
sI239
F0.1296657531
sI413
F0.0084391237
sI380
F0.2452579071
ssS'Or22a'
p24
(dp25
I512
F0.849305433
sI1
F0.0968270688
sI4
F0.07000558
sI5
F0.0806181852
sI519
F0.0161165448
sI8
F0.0786161403
sI525
F0.0246268036
sI941
F0.1616156774
sI16
F0.5061971809
sI19
F0.1265730411
sI20
F0.1018712608
sI21
F0.2792539521
sI22
F0.2684941734
sI23
F0.289903502
sI536
F0.1399387455
sI26
F0.0800903869
sI539
F0.0769916814
sI541
F0.3006760728
sI416
F0.2510162116
sI550
F0.0740248908
sI45
F0.0891154444
sI559
F0.1089164909
sI48
F0.5501492739
sI49
F0.0
sI51
F0.0311647861
sI55
F0.1121273411
sI56
F0.2589688541
sI57
F0.4301398158
sI58
F0.0996946823
sI60
F0.2878724394
sI61
F0.2291676921
sI62
F0.0095463889
sI63
F0.1763032146
sI69
F0.065103654
sI71
F0.0691417463
sI73
F0.1665361398
sI74
F0.1005001379
sI75
F0.5884496736
sI78
F0.4040935888
sI82
F0.0766114543
sI83
F0.1417425692
sI84
F0.0873603288
sI89
F0.516081953
sI91
F0.2161618147
sI93
F0.3110133479
sI95
F0.5252648228
sI99
F0.1004891163
sI100
F0.1343835026
sI614
F0.2770939198
sI107
F0.0829051226
sI620
F0.0659959628
sI109
F0.0809264562
sI110
F0.0639478105
sI111
F0.1207257372
sI112
F0.0752184005
sI114
F0.1037017508
sI116
F0.6876360659
sI631
F0.1551737221
sI122
F0.1571095323
sI123
F0.2469309588
sI124
F0.0905555429
sI448
F0.1939782779
sI534
F0.0723066343
sI449
F0.1386456881
sI141
F0.1610394985
sI656
F0.2128281013
sI145
F0.310918876
sI146
F0.2551172869
sI155
F0.0232120058
sI160
F0.1150234833
sI164
F0.1212461413
sI165
F0.0544333808
sI167
F0.7467680571
sI173
F0.0853618864
sI174
F0.0734813098
sI968
F0.2772697685
sI178
F0.1051103145
sI691
F0.0829051226
sI187
F0.0584445289
sI701
F0.2807488086
sI191
F0.1028873393
sI193
F0.3552609441
sI706
F0.1307986506
sI198
F0.1426891578
sI200
F0.8486806236
sI201
F0.0809264562
sI202
F0.264178677
sI204
F0.0952157354
sI205
F0.2356714736
sI206
F0.2900372548
sI717
F0.0746669735
sI211
F0.126030418
sI217
F0.3426262061
sI207
F0.2605726082
sI634
F0.2052213827
sI736
F0.1064222537
sI229
F0.1982157664
sI746
F0.344738902
sI237
F0.0674683655
sI239
F0.1048615433
sI245
F0.0894536108
sI254
F0.1664114797
sI767
F0.0113438536
sI768
F0.723810039
sI257
F0.2443833103
sI781
F0.3419170163
sI785
F0.1392222421
sI795
F0.3121643739
sI287
F0.0731685991
sI808
F0.1265730411
sI297
F0.0740248908
sI823
F0.5679111487
sI312
F0.8546257455
sI318
F0.3416658959
sI367
F0.0637783938
sI374
F0.0203782311
sI377
F0.107829087
sI380
F0.2294804828
sI904
F0.2311828958
sI407
F0.0107470374
sI408
F0.0161165448
sI405
F0.0146928903
sI919
F0.0368191649
sI920
F0.1018712608
sI921
F0.0161165448
sI410
F0.0109462241
sI923
F0.1333759344
sI413
F0.5867379582
sI926
F0.0132676262
sI927
F0.0534851261
sI928
F0.0507071069
sI929
F0.0101479286
sI930
F0.0590817627
sI931
F0.0246268036
sI933
F0.0620856407
sI934
F0.0798904543
sI935
F0.0246268036
sI936
F0.011840715
sI938
F0.0132676262
sI940
F0.0113438536
sI429
F0.1229607466
sI942
F0.0657475854
sI431
F0.0974454625
sI944
F0.0650816855
sI945
F0.0920962405
sI947
F0.0330887835
sI951
F0.1584919618
sI952
F0.0445014136
sI953
F0.1994640802
sI954
F0.1109205065
sI443
F0.2351787167
sI956
F0.1231772474
sI957
F0.0507071069
sI447
F0.3349755627
sI960
F0.156556495
sI961
F0.0779301229
sI964
F0.1521305966
sI453
F0.0479178193
sI966
F0.1179158634
sI967
F0.1179158634
sI15
F0.0680028845
sI969
F0.0103478948
sI970
F0.0751506721
sI971
F0.2005718547
sI972
F0.1978998306
sI979
F0.4609817134
sI980
F0.7073764813
sI982
F0.0914419848
sI983
F0.0979586049
sI985
F0.5145712344
sI989
F0.2498604932
sI991
F0.0829030503
sI992
F0.0823321498
sI993
F0.0823321498
sI994
F0.0625378644
sI595
F0.1148481003
sI500
F0.7793899671
sI426
F0.1367979444
ssS'Or22b'
p26
(dp27
I994
F0.0
sI73
F0.0108695652
sI75
F0.0036231884
sI204
F0.0289855072
sI173
F0.0289855072
sI239
F0.0
sI48
F0.0724637681
sI22
F0.0833333333
sI91
F0.0615942029
sI541
F0.0615942029
ssS'Or22c'
p28
(dp29
I173
F0.0637163866
sI22
F0.1051320379
sI538
F0.0318581933
sI111
F0.038229832
sI541
F0.0732738446
sI426
F0.0414156513
sI45
F0.551146744
sI48
F0.0637163866
sI49
F0.2835379203
sI51
F0.0637163866
sI56
F0.0828313026
sI443
F0.019114916
sI198
F0.0637163866
sI73
F0.038229832
sI75
F0.0573447479
sI204
F0.7104377104
sI952
F0.0318581933
sI217
F0.019114916
sI91
F0.1306185925
sI95
F0.0063716387
sI994
F0.0700880252
sI229
F0.0223007353
sI239
F0.0509731093
sI114
F0.0669022059
sI116
F0.0764596639
sI380
F0.0509731093
sI767
F0.0
ssS'Or49b'
p30
(dp31
I512
F0.0168027853
sI519
F0.0024540707
sI8
F0.0199336318
sI525
F0.0088064092
sI15
F0.0059276872
sI16
F0.1046058329
sI19
F0.0133717481
sI21
F0.0156584252
sI22
F0.0238670067
sI26
F0.1073566172
sI539
F0.0088064092
sI541
F0.0420780859
sI550
F0.0202400202
sI45
F0.0631138362
sI559
F0.0631138362
sI48
F0.0190553892
sI51
F0.0746348065
sI55
F0.0050587322
sI56
F0.0364253919
sI57
F0.0365285596
sI58
F0.0268286481
sI60
F0.0202400202
sI61
F0.0076667124
sI62
F0.0133717481
sI63
F0.0854132665
sI73
F0.0178513879
sI74
F0.0059276872
sI75
F0.0272173281
sI78
F0.0194987822
sI82
F0.0322005512
sI83
F0.0059276872
sI84
F0.0099467557
sI91
F0.0322464003
sI93
F0.0088064092
sI95
F0.0285167331
sI99
F0.0168027853
sI614
F0.0322005512
sI107
F0.0365285596
sI620
F0.0322005512
sI109
F0.0322005512
sI112
F0.0122294197
sI114
F0.0225350312
sI116
F0.0248329149
sI631
F0.2749503196
sI123
F0.004190146
sI124
F0.014514748
sI141
F0.0772204695
sI656
F0.0322005512
sI145
F0.0991111105
sI155
F0.0156584252
sI160
F0.0067970131
sI164
F0.0322005512
sI167
F0.0392279428
sI173
F0.0190896532
sI174
F0.019093577
sI178
F0.0322005512
sI691
F0.0110877574
sI701
F0.0717690759
sI191
F0.0194987822
sI193
F0.0156584252
sI706
F0.0204431766
sI198
F0.4732233033
sI200
F0.0099467557
sI201
F0.0322005512
sI202
F0.0334768117
sI204
F0.0507572954
sI205
F0.0067970131
sI717
F0.0076667124
sI416
F0.0059276872
sI217
F0.0322005512
sI207
F0.0799492886
sI229
F0.0322005512
sI237
F0.0322005512
sI239
F0.029503604
sI254
F0.0110877574
sI767
F0.6594132963
sI768
F0.0156584252
sI785
F0.0322005512
sI790
F0.5463960239
sI808
F0.0717690759
sI297
F0.2953182288
sI312
F0.0088064092
sI825
F0.0
sI367
F0.0322005512
sI374
F0.0122294197
sI380
F0.0347095912
sI904
F0.0636073174
sI407
F0.0099467557
sI408
F0.0156584252
sI405
F0.0156584252
sI919
F0.0186296417
sI920
F0.0322005512
sI921
F0.0099467557
sI410
F0.0099467557
sI923
F0.0322005512
sI413
F0.0322005512
sI926
F0.0076667124
sI927
F0.0156584252
sI928
F0.0179478339
sI929
F0.0110877574
sI930
F0.0133717481
sI931
F0.0110877574
sI933
F0.0168027853
sI934
F0.0216441543
sI935
F0.014514748
sI936
F0.0133717481
sI938
F0.0059276872
sI940
F0.019093577
sI941
F0.0050587322
sI942
F0.0088064092
sI431
F0.0076667124
sI944
F0.0202400202
sI945
F0.0181953486
sI947
F0.0007194431
sI956
F0.004190146
sI957
F0.0088064092
sI447
F0.0110877574
sI448
F0.0438539885
sI449
F0.0122294197
sI453
F0.0110877574
sI966
F0.0225350312
sI967
F0.0133717481
sI968
F0.0392279428
sI969
F0.0122294197
sI970
F0.0067970131
sI972
F0.0322005512
sI979
F0.0256470641
sI980
F0.0088064092
sI994
F0.0121467644
sI500
F0.0259829495
sI426
F0.0322005512
ssS'Or49a'
p32
(dp33
I173
F0.0901048626
sI22
F0.1537522523
sI538
F0.0148687957
sI111
F0.0041851695
sI541
F0.1236462695
sI426
F0.0060605298
sI45
F0.0232413995
sI48
F0.1300085512
sI49
F0.0004694216
sI51
F0.0064985347
sI56
F0.0922038898
sI443
F0.1355026776
sI198
F0.0167739429
sI73
F0.0397337692
sI75
F0.0671354959
sI204
F0.0041851695
sI952
F0.0355134014
sI217
F0.1136350445
sI91
F0.1447055729
sI95
F0.1025538804
sI994
F0.012573099
sI229
F0.0297038628
sI239
F0.0297038628
sI114
F0.0217007633
sI116
F0.0629465911
sI380
F0.0776175874
sI767
F0.0190600671
ssS'ab5B'
p34
(dp35
I8
F0.0094959772
sI237
F0.0
sI656
F0.0697255833
sI785
F0.1041293971
sI367
F0.0222977035
sI20
F0.0360736858
sI22
F0.3924176462
sI919
F0.1444666101
sI920
F0.0880020941
sI201
F0.0222977035
sI923
F0.111575511
sI541
F0.0754967831
sI164
F0.0880020941
sI934
F0.6880395946
sI426
F0.0222977035
sI173
F0.0399536461
sI559
F0.0094959772
sI48
F0.955431151
sI945
F0.0222977035
sI178
F0.0158266286
sI51
F0.0222977035
sI73
F0.0970678803
sI56
F0.0094959772
sI58
F0.0126613029
sI191
F0.079179483
sI448
F0.0360736858
sI706
F0.048371506
sI198
F0.048371506
sI972
F0.0189919544
sI202
F0.048371506
sI75
F0.0461601923
sI204
F0.0376819313
sI45
F0.048371506
sI78
F0.111575511
sI979
F0.1929375416
sI217
F0.2166029131
sI91
F0.0524897243
sI95
F0.2927469201
sI994
F0.0462087001
sI229
F0.0189919544
sI614
F0.0189919544
sI620
F0.0126613029
sI109
F0.0126613029
sI239
F0.0477085827
sI413
F0.0595125043
sI380
F0.0431776097
ssS'Or59c'
p36
(dp37
I229
F0.0641065484
sI198
F0.0
sI73
F0.1085541934
sI173
F0.0138187935
sI51
F0.0271337041
sI22
F0.148186197
sI217
F0.200972401
sI952
F0.0103813727
sI825
F0.0103813727
sI95
F0.116430153
ssS'Or59a'
p38
(dp39
I173
F0.0460057375
sI22
F0.0835528409
sI538
F0.0265212222
sI111
F0.0282707107
sI541
F0.0460057375
sI426
F0.4669098355
sI45
F0.27077096
sI48
F0.0800575487
sI49
F0.3652070594
sI51
F0.0441746275
sI56
F0.0748139122
sI443
F0.0709811943
sI198
F0.0
sI73
F0.1441333069
sI75
F0.0603254242
sI204
F0.0460057375
sI952
F0.0676035777
sI217
F0.1316903876
sI91
F0.0441746275
sI95
F0.0710652954
sI994
F0.005101773
sI229
F0.0782252511
sI239
F0.0068435333
sI114
F0.0382435046
sI116
F0.1048681207
sI380
F0.0585771226
sI767
F0.4882930153
ssS'pb2A'
p40
(dp41
I229
F0.107408109
sI198
F0.1074192219
sI73
F0.1074118342
sI173
F0.1074403346
sI51
F0.1074804428
sI22
F0.0975710697
sI217
F0.1074361974
sI952
F0.6424424424
sI825
F0.0925617091
sI95
F0.1074411471
ssS'Or94a'
p42
(dp43
I173
F0.058719309
sI22
F0.0981357739
sI538
F0.0638639593
sI111
F0.0861371061
sI541
F0.0690011268
sI426
F0.0330176854
sI45
F0.17355025
sI48
F0.0981282385
sI49
F0.7935979508
sI51
F0.1238421792
sI56
F0.1118515362
sI443
F0.0313002836
sI198
F0.2968744626
sI73
F0.0450025628
sI75
F0.0330176854
sI204
F0.0707110169
sI952
F0.0330103319
sI217
F0.0210178324
sI91
F0.1289711447
sI95
F0.0
sI994
F0.0175537586
sI229
F0.027872819
sI239
F0.038162523
sI114
F0.0962302103
sI116
F0.0381551551
sI380
F0.048444715
sI767
F0.9200564575
ssS'Or94b'
p44
(dp45
I173
F0.0666954484
sI22
F0.1329576162
sI538
F0.0
sI111
F0.0091228479
sI541
F0.0951083667
sI426
F0.0344104275
sI45
F0.1294576611
sI48
F0.1242452427
sI49
F0.0683477751
sI51
F0.0397447134
sI56
F0.0253962063
sI443
F0.0844422305
sI449
F0.0660138863
sI198
F0.4581893405
sI73
F0.0523465338
sI75
F0.0636852569
sI204
F0.0863778602
sI952
F0.0108765822
sI217
F0.1420844437
sI91
F0.1042185959
sI95
F0.0863778602
sI994
F0.0035962263
sI229
F0.0379976447
sI239
F0.0143837755
sI114
F0.015157794
sI116
F0.0593332346
sI380
F0.0593332346
sI767
F0.2049927986
ssS'Or82a'
p46
(dp47
I512
F0.0612191546
sI519
F0.0201123973
sI8
F0.0628365793
sI525
F0.0049569572
sI15
F0.1410862711
sI16
F0.2036316891
sI19
F0.0664314907
sI21
F0.0664314907
sI22
F0.0952829106
sI26
F0.1030672799
sI539
F0.0810907741
sI541
F0.1211170972
sI416
F0.0258912888
sI550
F0.0763507061
sI45
F0.0161229614
sI559
F0.0463505277
sI48
F0.1042892477
sI49
F0.0258874217
sI51
F0.0078089187
sI55
F0.0296757208
sI56
F0.117487973
sI57
F0.1445736745
sI58
F0.0415238501
sI60
F0.0763507061
sI61
F0.0315478463
sI62
F0.0049569572
sI63
F0.1375500309
sI73
F0.0701365839
sI74
F0.008174449
sI75
F0.0856149053
sI78
F0.066669302
sI82
F0.0630494509
sI83
F0.0142078995
sI84
F0.1211930136
sI91
F0.1228994695
sI93
F0.0988715689
sI95
F0.0955078923
sI99
F0.0383415333
sI614
F0.0630494509
sI107
F0.1266244827
sI620
F0.0630494509
sI109
F0.0630494509
sI111
F0.0931090932
sI112
F0.0049569572
sI114
F0.0469248176
sI116
F0.0635922978
sI123
F0.0352525045
sI124
F0.1030672799
sI141
F0.1645791944
sI656
F0.0630494509
sI145
F0.0258912888
sI155
F0.0018588589
sI538
F0.0234207485
sI160
F0.0558108714
sI164
F0.0630494509
sI167
F0.1030672799
sI173
F0.0467121209
sI174
F0.0988715689
sI178
F0.0630494509
sI691
F0.0049569572
sI701
F0.2174274024
sI191
F0.0380622417
sI193
F0.1303217354
sI706
F0.0284936896
sI198
F0.0240833457
sI200
F0.0352525045
sI201
F0.0630494509
sI202
F0.1400549598
sI204
F0.0459763726
sI205
F0.2201180222
sI717
F0.0061961965
sI211
F0.123558751
sI217
F0.089194866
sI207
F0.1645791944
sI229
F0.0106476922
sI237
F0.0630494509
sI239
F0.7396858708
sI254
F0.0352525045
sI767
F0.0067577754
sI768
F0.0612191546
sI785
F0.0630494509
sI808
F0.1740613523
sI297
F0.0945839177
sI312
F0.1190488123
sI367
F0.0630494509
sI374
F0.0043373375
sI380
F0.0688007315
sI904
F0.1375500309
sI407
F0.008174449
sI408
F0.0122112448
sI405
F0.0142078995
sI919
F0.0284936896
sI920
F0.0630494509
sI921
F0.0122112448
sI410
F0.0049569572
sI923
F0.0630494509
sI413
F0.0630494509
sI926
F0.0061961965
sI927
F0.0043373375
sI928
F0.0352525045
sI929
F0.0049569572
sI930
F0.0043373375
sI931
F0.0055765768
sI933
F0.0061961965
sI934
F0.0918104233
sI935
F0.0061961965
sI936
F0.0122112448
sI938
F0.0061961965
sI940
F0.0043373375
sI941
F0.0142078995
sI942
F0.0220524876
sI431
F0.1547629818
sI944
F0.0181583513
sI945
F0.0812329618
sI947
F0.11120786
sI951
F0.1970016924
sI952
F0.074489401
sI443
F0.0885524405
sI956
F0.0
sI957
F0.0061961965
sI447
F0.0258912888
sI448
F0.0621850855
sI449
F0.0352525045
sI453
F0.0102001369
sI966
F0.0220524876
sI967
F0.0612191546
sI968
F0.1480143323
sI969
F0.008174449
sI970
F0.0988715689
sI972
F0.0630494509
sI979
F0.087944879
sI980
F0.1303217354
sI994
F0.0550109911
sI500
F0.071469346
sI426
F0.0196293471
ssS'ac1b'
p48
(dp49
I961
F0.1220248072
sI23
F0.1176667784
sI63
F0.0697284613
sI15
F0.1656050955
sI16
F0.0784445189
sI536
F0.0958766343
sI21
F0.1263828361
sI22
F0.1133087496
sI919
F0.1133087496
sI920
F0.1045926919
sI25
F0.0697284613
sI922
F0.1002346631
sI924
F0.0958766343
sI925
F0.0
sI541
F0.1394569226
sI93
F0.1002346631
sI297
F0.1307408649
sI538
F0.1045926919
sI173
F0.1133087496
sI174
F0.1089507208
sI559
F0.0435802883
sI48
F0.1133087496
sI51
F0.1525310091
sI52
F0.0958766343
sI55
F0.0915186054
sI56
F0.1133087496
sI57
F0.1002346631
sI58
F0.026148173
sI60
F0.0915186054
sI61
F0.1089507208
sI447
F0.0392222595
sI193
F0.0348642306
sI69
F0.0435802883
sI71
F0.1045926919
sI202
F0.0392222595
sI89
F0.1220248072
sI91
F0.1002346631
sI314
F0.0435802883
sI229
F0.1089507208
sI956
F0.1176667784
sI109
F0.1394569226
sI110
F0.1133087496
sI114
F0.0435802883
sI123
F0.1133087496
sI636
F0.026148173
ssS'ac1a'
p50
(dp51
I961
F0.0289881297
sI23
F0.0708598726
sI63
F0.0773016792
sI15
F0.0515344528
sI16
F0.0515344528
sI536
F0.0837434858
sI21
F0.0515344528
sI22
F0.0740807759
sI919
F0.0
sI920
F0.5668789809
sI25
F0.0193254198
sI922
F0.0257672264
sI924
F0.1642660683
sI925
F0.1578242617
sI541
F0.0773016792
sI93
F0.0515344528
sI297
F0.0611971627
sI538
F0.0289881297
sI173
F0.0289881297
sI174
F0.0837434858
sI559
F0.0515344528
sI48
F0.0901852924
sI51
F0.0837434858
sI52
F0.0740807759
sI55
F0.0837434858
sI56
F0.0773016792
sI57
F0.0740807759
sI58
F0.0289881297
sI60
F0.0708598726
sI61
F0.1095107122
sI447
F0.0289881297
sI193
F0.0837434858
sI69
F0.0837434858
sI71
F0.0740807759
sI202
F0.0773016792
sI89
F0.0869643891
sI91
F0.032209033
sI314
F0.032209033
sI229
F0.0289881297
sI956
F0.0289881297
sI109
F0.0740807759
sI110
F0.0740807759
sI114
F0.0837434858
sI123
F0.0708598726
sI636
F0.0837434858
ssS'ac4'
p52
(dp53
I961
F0.1136697697
sI23
F0.0568348849
sI63
F0.0639392455
sI15
F0.0781479667
sI16
F0.0390739833
sI536
F0.0674914258
sI21
F0.0710436061
sI22
F0.0497305243
sI919
F0.081700147
sI920
F0.1420872122
sI25
F0.0674914258
sI922
F0.1207741303
sI924
F0.0710436061
sI925
F0.0
sI541
F0.0603870652
sI93
F0.081700147
sI297
F0.1136697697
sI538
F0.0781479667
sI173
F0.1918177364
sI174
F0.1598481137
sI559
F0.4617834395
sI48
F0.0639392455
sI51
F0.0497305243
sI52
F0.1314306712
sI55
F0.1705046546
sI56
F0.0319696227
sI57
F0.0603870652
sI58
F0.1314306712
sI60
F0.2344439
sI61
F0.1136697697
sI447
F0.0674914258
sI193
F0.081700147
sI69
F0.0745957864
sI71
F0.0781479667
sI202
F0.0568348849
sI89
F0.0745957864
sI91
F0.0639392455
sI314
F0.0426261636
sI229
F0.0674914258
sI956
F0.11722195
sI109
F0.081700147
sI110
F0.0603870652
sI114
F0.0781479667
sI123
F0.1527437531
sI636
F0.11722195
ssS'Or10a'
p54
(dp55
I512
F0.0251480261
sI519
F0.0238929902
sI8
F0.0310048732
sI525
F0.0270630958
sI15
F0.0231452791
sI16
F0.0714751952
sI19
F0.0312632306
sI20
F0.0273739627
sI21
F0.0581730021
sI22
F0.0552199311
sI26
F0.0119474684
sI539
F0.0928618043
sI541
F0.048079567
sI550
F0.0256264615
sI45
F0.7449259831
sI559
F0.3086236614
sI48
F0.0647576126
sI51
F0.2287711508
sI55
F0.0338946351
sI56
F0.0320340756
sI57
F0.3356494328
sI58
F0.0948218579
sI60
F0.0957617017
sI61
F0.1205461116
sI62
F0.035523043
sI63
F0.0299501776
sI73
F0.0538024278
sI74
F0.8346595082
sI75
F0.0489642487
sI78
F0.0973401892
sI83
F0.2058619217
sI84
F0.0285994923
sI91
F0.0464316649
sI93
F0.0113857118
sI95
F0.5130323216
sI99
F0.1231761308
sI614
F0.2184532581
sI107
F0.8333664353
sI620
F0.0696215826
sI109
F0.0384064885
sI112
F0.0402043208
sI114
F0.1410371969
sI116
F0.2123720151
sI634
F0.0
sI123
F0.0546901459
sI124
F0.1042697344
sI449
F0.0164862709
sI141
F0.1283736054
sI656
F0.0384064885
sI145
F0.2178182154
sI155
F0.027542418
sI160
F0.0649415647
sI164
F0.0696215826
sI167
F0.1580932971
sI173
F0.0633692427
sI174
F0.1069256531
sI178
F0.0562184914
sI691
F0.0285994923
sI185
F0.0288735449
sI701
F0.0899272026
sI191
F0.0257856403
sI193
F0.0957617017
sI706
F0.0333415308
sI198
F0.1657939162
sI200
F0.012336553
sI201
F0.0424308059
sI202
F0.0154751189
sI204
F0.8198876109
sI205
F0.061588641
sI717
F0.035523043
sI416
F0.0246698113
sI217
F0.0424308059
sI207
F0.0299501776
sI229
F0.0227634683
sI746
F0.0
sI237
F0.0309471772
sI239
F0.0632186418
sI254
F0.1125203658
sI767
F0.0235191347
sI768
F0.3700426066
sI257
F0.0
sI785
F0.049374544
sI795
F0.0
sI808
F0.028021963
sI297
F0.0299501776
sI312
F0.5009738568
sI318
F0.0
sI367
F0.1138749138
sI374
F0.0338946351
sI380
F0.047564383
sI904
F0.0778022464
sI407
F0.1580932971
sI408
F0.0437855469
sI405
F0.028021963
sI919
F0.0244917133
sI920
F0.0629663379
sI921
F0.0235191347
sI410
F0.0402043208
sI923
F0.0356384659
sI413
F0.0696215826
sI926
F0.026105118
sI927
F0.1283736054
sI928
F0.0928618043
sI929
F0.0475022778
sI930
F0.1070468008
sI931
F0.0511350851
sI933
F0.1360249268
sI934
F0.0668615799
sI935
F0.028021963
sI936
F0.0256264615
sI938
F0.0256264615
sI940
F0.0270630958
sI941
F0.0285994923
sI942
F0.026583996
sI431
F0.72497887
sI944
F0.0256264615
sI945
F0.026896464
sI947
F0.038674854
sI956
F0.035523043
sI957
F0.028021963
sI447
F0.0928618043
sI448
F0.0280907449
sI961
F0.0
sI453
F0.035523043
sI966
F0.0511350851
sI967
F0.0746629699
sI968
F0.0242668457
sI969
F0.027542418
sI970
F0.0147663736
sI971
F0.0
sI972
F0.0761875478
sI979
F0.0302729295
sI980
F0.0251480261
sI985
F0.0
sI994
F0.0584814064
sI500
F0.084090341
sI426
F0.1016194755
ssS'Or59b'
p56
(dp57
I512
F0.0015066553
sI519
F0.1831664017
sI8
F0.0162787052
sI525
F0.006026621
sI15
F0.0030133105
sI16
F0.1586353216
sI19
F0.0459901977
sI20
F0.0374757622
sI21
F0.4177502674
sI22
F0.0929593336
sI26
F0.0208092609
sI539
F0.0158165452
sI541
F0.0540862223
sI550
F0.1027085368
sI45
F0.0209121529
sI559
F0.0281619113
sI48
F0.1687577794
sI51
F0.0218172922
sI55
F0.0383975278
sI56
F0.1251112381
sI57
F0.1397921299
sI58
F0.0675567455
sI60
F0.0896541994
sI61
F0.0587188945
sI62
F0.0283253096
sI63
F0.123802013
sI73
F0.5089441907
sI74
F0.006026621
sI75
F0.137337067
sI78
F0.295383486
sI83
F0.0689694935
sI84
F0.0183111121
sI91
F0.1044821562
sI93
F0.1158618721
sI95
F0.1085079157
sI99
F0.0922572182
sI614
F0.0491338717
sI107
F0.0108381134
sI620
F0.0374757622
sI109
F0.0314351741
sI112
F0.0333541216
sI114
F0.0766973823
sI116
F0.1886650436
sI123
F0.043455618
sI124
F0.0766973823
sI141
F0.383597468
sI656
F0.0433727215
sI145
F0.1053312365
sI155
F0.0133255493
sI160
F0.6607666963
sI164
F0.012297795
sI167
F0.3928477392
sI173
F0.0597235772
sI174
F0.0870550813
sI178
F0.0602771278
sI691
F0.0561656775
sI701
F0.1158618721
sI191
F0.0159463726
sI193
F0.1722209604
sI706
F0.3592302895
sI198
F0.0433727215
sI200
F0.0015066553
sI201
F0.0314351741
sI202
F0.0703390621
sI204
F0.0285851966
sI205
F0.0158165452
sI717
F0.0561656775
sI416
F0.0108381134
sI217
F0.0491338717
sI207
F0.0818685005
sI229
F0.0491338717
sI237
F0.0491338717
sI239
F0.1103909812
sI254
F0.1776850744
sI767
F0.0030133105
sI768
F0.0030133105
sI785
F0.0100976947
sI808
F0.1158618721
sI297
F0.0510704827
sI312
F0.1291156992
sI367
F0.0491338717
sI374
F0.0075332763
sI380
F0.3744253059
sI904
F0.0974750052
sI407
F0.0233110027
sI408
F0.0844598523
sI405
F0.0108381134
sI919
F0.0138981495
sI920
F0.012297795
sI921
F0.0333541216
sI410
F0.0308378969
sI923
F0.0144962872
sI413
F0.1274547672
sI926
F0.0208092609
sI927
F0.0792810144
sI928
F0.0766973823
sI929
F0.0383975278
sI930
F0.0664011611
sI931
F0.0689694935
sI933
F0.0561656775
sI934
F0.0455573353
sI935
F0.0459901977
sI936
F0.0075332763
sI938
F0.0075332763
sI940
F0.0133255493
sI941
F0.0459901977
sI942
F0.0015066553
sI431
F0.1451550698
sI944
F0.0015066553
sI945
F0.0082033433
sI947
F0.0612758731
sI956
F0.0459901977
sI957
F0.0638366249
sI447
F0.0612758731
sI448
F0.0514556607
sI449
F0.0208092609
sI453
F0.0333541216
sI966
F0.0612758731
sI967
F0.0485284821
sI968
F0.0818685005
sI969
F0.0075332763
sI970
F0.0409247318
sI972
F0.0602771278
sI979
F0.1108056953
sI980
F0.0
sI994
F0.0759611132
sI500
F0.0208092609
sI426
F0.0547664419
ssS'Or43a'
p58
(dp59
I512
F0.0400335301
sI519
F0.02668902
sI8
F0.1158963383
sI525
F0.067573773
sI15
F0.045253789
sI16
F0.3429073075
sI205
F0.1198457721
sI19
F0.0400335301
sI21
F0.0521271481
sI22
F0.2249566859
sI26
F0.1939213092
sI539
F0.067573773
sI541
F0.4023003047
sI550
F0.0422576151
sI45
F0.2226078406
sI559
F0.0836112142
sI48
F0.1478930609
sI51
F0.2217790719
sI55
F0.0444817001
sI56
F0.0863888651
sI57
F0.1672303559
sI58
F0.0574262897
sI60
F0.1118891226
sI61
F0.072447201
sI62
F0.067573773
sI63
F0.40616627
sI73
F0.0832276604
sI74
F0.011120425
sI75
F0.1752005926
sI78
F0.0951996428
sI83
F0.0378094451
sI84
F0.033361275
sI91
F0.5272783473
sI93
F0.077201469
sI95
F0.1568226898
sI99
F0.067573773
sI107
F0.077201469
sI112
F0.0355853601
sI114
F0.067573773
sI116
F0.1388410872
sI123
F0.0400335301
sI124
F0.067573773
sI141
F0.1198457721
sI145
F0.2163285424
sI155
F0.0521271481
sI160
F0.0422576151
sI167
F0.1313814784
sI173
F0.2518465309
sI174
F0.0422576151
sI691
F0.0422576151
sI701
F0.4000279353
sI191
F0.0400335301
sI193
F0.1388410872
sI706
F0.033361275
sI200
F0.1158963383
sI202
F0.2745211653
sI204
F0.1611530484
sI717
F0.0444817001
sI207
F0.200399502
sI416
F0.0422576151
sI229
F0.4492797998
sI237
F0.062570727
sI239
F0.0594863678
sI254
F0.1078202621
sI767
F0.3429073075
sI768
F0.020016765
sI808
F0.2864853091
sI297
F0.2693766438
sI312
F0.1840701392
sI374
F0.028913105
sI380
F0.1230292582
sI904
F0.2442533737
sI407
F0.0521271481
sI405
F0.02668902
sI919
F0.03113719
sI408
F0.0378094451
sI921
F0.0467057851
sI410
F0.067573773
sI926
F0.033361275
sI927
F0.0489298701
sI928
F0.0908378543
sI929
F0.0378094451
sI930
F0.0863888651
sI931
F0.01334451
sI933
F0.0951996428
sI934
F0.1078202621
sI935
F0.062570727
sI936
F0.1313814784
sI938
F0.1275852032
sI940
F0.0444817001
sI941
F0.01334451
sI942
F0.0951996428
sI431
F0.03113719
sI944
F0.0574262897
sI945
F0.062570727
sI947
F0.1603203685
sI956
F0.0
sI957
F0.0574262897
sI447
F0.1237409718
sI448
F0.2068139147
sI449
F0.0521271481
sI453
F0.0378094451
sI966
F0.0818459058
sI967
F0.0574262897
sI968
F0.3399369113
sI969
F0.028913105
sI970
F0.0444817001
sI971
F0.5026547303
sI979
F0.03113719
sI980
F0.0521271481
sI994
F0.0475325161
sI500
F0.1036855423
ssS'Or92a'
p60
(dp61
I1
F0.0399256275
sI5
F0.0408210775
sI8
F0.023764639
sI941
F0.0308911609
sI21
F0.1567774622
sI22
F0.0257637474
sI23
F0.038615563
sI536
F0.025971086
sI25
F0.0275170213
sI26
F0.0412738475
sI541
F0.0156220478
sI45
F0.0232898877
sI559
F0.1173417361
sI48
F0.0229826205
sI49
F0.0294249802
sI51
F0.0201506731
sI55
F0.0184871348
sI56
F0.0232898877
sI57
F0.0342539281
sI58
F0.0264694227
sI60
F0.0312612388
sI61
F0.0140296807
sI62
F0.0385854742
sI63
F0.0340998368
sI69
F0.0265295994
sI582
F0.0212637716
sI71
F0.02047096
sI73
F0.1915878129
sI74
F0.0591044165
sI75
F0.1487183135
sI78
F0.1870600663
sI79
F0.1327474199
sI440
F0.0287531924
sI82
F0.0316399104
sI83
F0.0461050287
sI84
F0.0389710207
sI89
F0.0375925985
sI91
F0.0413096006
sI93
F0.0249256007
sI95
F0.0232898877
sI97
F0.0648559336
sI99
F0.020072728
sI100
F0.0284396561
sI614
F0.1693055675
sI102
F0.0555023406
sI615
F0.0726498823
sI108
F0.1299110882
sI109
F0.0264591497
sI110
F0.0178070614
sI111
F0.0212886171
sI112
F0.0394049768
sI114
F0.0184937166
sI121
F0.0318383207
sI123
F0.0178130353
sI124
F0.0288040009
sI620
F0.0232898877
sI656
F0.0232898877
sI145
F0.1699334507
sI146
F0.368713808
sI164
F0.0232898877
sI173
F0.0931942534
sI178
F0.0232898877
sI185
F0.0310420368
sI187
F0.0277846836
sI191
F0.038188675
sI706
F0.023636697
sI198
F0.0261622754
sI201
F0.0232898877
sI202
F0.0259435053
sI204
F0.023624008
sI717
F0.0372464623
sI206
F0.2186630228
sI211
F0.0446334578
sI217
F0.0218657494
sI222
F0.0629692423
sI736
F0.0186645231
sI229
F0.0221656505
sI746
F0.2479784165
sI237
F0.024527126
sI239
F0.0298813536
sI245
F0.0266753116
sI254
F0.2231745772
sI781
F0.0287401263
sI785
F0.0232898877
sI795
F0.0207725534
sI297
F0.0215893058
sI823
F0.0366387442
sI367
F0.1154443368
sI380
F0.849220468
sI439
F0.0268410896
sI909
F0.0316566558
sI919
F0.0232898877
sI920
F0.0232898877
sI923
F0.0232898877
sI413
F0.030386925
sI928
F0.0163320873
sI934
F0.0232898877
sI424
F0.0230125633
sI426
F0.0306015928
sI429
F0.0634719542
sI942
F0.0262709089
sI431
F0.1172290145
sI945
F0.0379101234
sI951
F0.1853308553
sI952
F0.0285561111
sI953
F0.0565946859
sI954
F0.0362656867
sI956
F0.0509989716
sI449
F0.0262885244
sI962
F0.0281707342
sI963
F0.0435409872
sI964
F0.0457708221
sI965
F0.0215317138
sI970
F0.5157376081
sI459
F0.0322516925
sI972
F0.0226608203
sI973
F0.172509213
sI976
F0.0272993819
sI979
F0.0250617972
sI988
F0.0266992952
sI989
F0.0786550216
sI991
F0.0435320184
sI992
F0.0260979124
sI993
F0.0322724552
sI994
F0.0191764856
ssS'Or43b'
p62
(dp63
I512
F0.0532434731
sI519
F0.0754998734
sI8
F0.0532434731
sI525
F0.0627331099
sI15
F0.1320950259
sI16
F0.4774603542
sI205
F0.198753133
sI19
F0.1497750085
sI21
F0.1217497724
sI22
F0.3075775131
sI26
F0.0595626937
sI539
F0.1286259916
sI541
F0.1987650199
sI550
F0.0474122919
sI45
F0.072294259
sI559
F0.065911463
sI48
F0.3655415846
sI51
F0.0787157668
sI55
F0.2188716794
sI56
F0.315206914
sI57
F0.6646364157
sI58
F0.1048888633
sI60
F0.0627331099
sI61
F0.1909102801
sI62
F0.072294259
sI63
F0.3429680417
sI73
F0.4967266019
sI74
F0.0595626937
sI75
F0.6914741757
sI78
F0.6612143854
sI80
F0.5221059632
sI83
F0.072294259
sI84
F0.0595626937
sI91
F0.3831114473
sI93
F0.0916945969
sI95
F0.4212708818
sI99
F0.072294259
sI107
F0.1461923183
sI112
F0.0595626937
sI114
F0.0627331099
sI116
F0.6752016849
sI123
F0.0787157668
sI124
F0.0627331099
sI141
F0.4077002813
sI145
F0.604805522
sI155
F0.0474122919
sI160
F0.1115800902
sI167
F0.6752016849
sI173
F0.3100438906
sI174
F0.0690983195
sI691
F0.1015677845
sI701
F0.6612143854
sI191
F0.0627331099
sI193
F0.3244264715
sI706
F0.0754998734
sI200
F0.1164116402
sI202
F0.2107364577
sI204
F0.0545410401
sI717
F0.1048888633
sI207
F0.2271231329
sI416
F0.0503305697
sI237
F0.0595626937
sI239
F0.0849583802
sI254
F0.065911463
sI767
F0.1570144943
sI768
F0.7109612778
sI808
F0.4521338882
sI297
F0.0415595165
sI312
F0.6819292269
sI374
F0.0474122919
sI380
F0.2658564951
sI904
F0.2354891212
sI407
F0.0627331099
sI405
F0.0474122919
sI919
F0.0444886156
sI408
F0.0690983195
sI921
F0.0787157668
sI410
F0.0503305697
sI926
F0.0474122919
sI927
F0.065911463
sI928
F0.072294259
sI929
F0.1533822172
sI930
F0.0690983195
sI931
F0.1948171706
sI933
F0.0595626937
sI934
F0.164356332
sI935
F0.0787157668
sI936
F0.0690983195
sI938
F0.0627331099
sI940
F0.0563996613
sI941
F0.065911463
sI942
F0.0595626937
sI431
F0.1533822172
sI944
F0.0690983195
sI945
F0.0444886156
sI947
F0.0851808634
sI956
F0.0884313291
sI957
F0.0754998734
sI447
F0.1390981866
sI448
F0.3893722505
sI449
F0.0627331099
sI453
F0.0386249705
sI966
F0.0851808634
sI967
F0.0819425548
sI968
F0.672899536
sI969
F0.0563996613
sI970
F0.4815652341
sI979
F0.0627331099
sI980
F0.0532434731
sI994
F0.0
sI500
F0.2482469232
ssS'Or13a'
p64
(dp65
I1
F0.080487933
sI5
F0.1050017728
sI8
F0.0615279889
sI941
F0.0995431148
sI20
F0.0764454809
sI21
F0.1207205766
sI22
F0.2047366813
sI23
F0.114190453
sI536
F0.127014872
sI25
F0.1985951085
sI26
F0.1109696809
sI541
F0.5493036563
sI45
F0.0518085329
sI559
F0.0521918718
sI48
F0.2717475226
sI49
F0.0436312453
sI51
F0.0553639848
sI55
F0.0643264279
sI56
F0.0959050126
sI57
F0.1876674288
sI58
F0.2311613851
sI60
F0.0752773912
sI61
F0.1453391756
sI62
F0.0641691814
sI63
F0.2666171291
sI69
F0.0773432632
sI582
F0.0720437737
sI71
F0.10695824
sI73
F0.1153145177
sI74
F0.0740443179
sI75
F0.0908408762
sI78
F0.0625090769
sI79
F0.0624422835
sI440
F0.1280346039
sI82
F0.0663392122
sI83
F0.0665911829
sI84
F0.0869773946
sI89
F0.1848003271
sI91
F0.4039362671
sI93
F0.1988903064
sI95
F0.150428772
sI97
F0.1209191374
sI99
F0.0695139795
sI100
F0.0263477071
sI614
F0.1760869071
sI102
F0.033776022
sI615
F0.0796327829
sI108
F0.1171929092
sI109
F0.0830020613
sI110
F0.112298803
sI111
F0.0901691056
sI112
F0.0427847593
sI114
F0.070361353
sI116
F0.1510989
sI121
F0.0719678745
sI123
F0.0932100527
sI124
F0.0617835028
sI620
F0.0834136828
sI656
F0.2552959978
sI145
F0.2449927965
sI146
F0.3232605825
sI538
F0.0452925023
sI164
F0.0996728207
sI173
F0.2843340051
sI178
F0.1019955547
sI185
F0.5299579872
sI187
F0.0932529675
sI191
F0.1680752354
sI706
F0.1400175705
sI198
F0.0609104051
sI201
F0.1554184364
sI202
F0.0789667731
sI204
F0.0959888783
sI717
F0.0817297565
sI206
F0.0935708214
sI211
F0.0460855671
sI217
F0.4688707608
sI222
F0.2422665305
sI736
F0.0555218658
sI229
F0.0652451658
sI746
F0.1351231398
sI237
F0.0788970637
sI239
F0.1490759099
sI245
F0.0849290639
sI254
F0.0435256741
sI767
F0.0439904761
sI781
F0.1850979494
sI785
F0.0880591508
sI795
F0.2064824695
sI287
F0.0229891603
sI297
F0.1172368282
sI823
F0.1134018324
sI367
F0.0577448175
sI380
F0.1696353067
sI439
F0.1323009823
sI909
F0.3082810773
sI919
F0.0973500867
sI920
F0.0671545449
sI923
F0.0764454809
sI413
F0.0966709618
sI928
F0.0251672754
sI934
F0.1229001606
sI424
F0.069712062
sI426
F0.0588056448
sI429
F0.0880031573
sI942
F0.06646538
sI431
F0.0
sI945
F0.1527889247
sI951
F0.0649552363
sI952
F0.0666196641
sI953
F0.0427847593
sI954
F0.0805246292
sI443
F0.2660786617
sI956
F0.0484362902
sI448
F0.3760781651
sI449
F0.1277745684
sI962
F0.0483368365
sI963
F0.0632792461
sI964
F0.0412438985
sI965
F0.0310694161
sI970
F0.1184796355
sI459
F0.0818633125
sI972
F0.0841595437
sI973
F0.4006515235
sI976
F0.3484436819
sI979
F0.2783302234
sI985
F0.0229891603
sI988
F0.1998132227
sI989
F0.0229891603
sI991
F0.1159406523
sI992
F0.1062620958
sI993
F0.093038024
sI994
F0.1076929521
ssS'Or46a'
p66
(dp67
I229
F0.0415874127
sI198
F0.6985842986
sI73
F0.0467001218
sI173
F0.0533421879
sI51
F0.190278647
sI22
F0.0115186618
sI217
F0.0154447868
sI952
F0.0
sI825
F0.0704612605
sI95
F0.0621336627
ssS'Or67c'
p68
(dp69
I512
F0.0309670822
sI519
F0.0309670822
sI8
F0.053007061
sI525
F0.0442022042
sI15
F0.042866749
sI16
F0.3377554836
sI19
F0.0948975368
sI21
F0.0563593353
sI22
F0.0843081999
sI26
F0.1251904108
sI539
F0.0495734934
sI541
F0.0603050476
sI550
F0.0296571368
sI45
F0.0732907669
sI559
F0.0559547858
sI48
F0.0477258762
sI51
F0.0448142176
sI55
F0.0563593353
sI56
F0.1044398232
sI57
F0.0904115294
sI58
F0.0549609524
sI60
F0.0442022042
sI61
F0.0482261128
sI62
F0.0309670822
sI63
F0.2316602612
sI73
F0.068571649
sI74
F0.0231403682
sI75
F0.3956911487
sI78
F0.0938142096
sI82
F0.0682282398
sI83
F0.0244394787
sI84
F0.0590980279
sI91
F0.1951820746
sI93
F0.0309670822
sI95
F0.0849816236
sI99
F0.0455405383
sI614
F0.0682282398
sI107
F0.0415341076
sI620
F0.0682282398
sI109
F0.0682282398
sI112
F0.0349109657
sI114
F0.052277808
sI116
F0.1184840586
sI123
F0.0549953772
sI124
F0.042866749
sI141
F0.6041892776
sI656
F0.0682282398
sI145
F0.1375656492
sI155
F0.0388770162
sI160
F0.0375524456
sI164
F0.0682282398
sI167
F0.1393296752
sI173
F0.1218906437
sI174
F0.0482261128
sI178
F0.0682282398
sI691
F0.0549953772
sI701
F0.189313603
sI191
F0.0579330856
sI193
F0.1135855141
sI706
F0.0332933052
sI198
F0.0682282398
sI200
F0.0244394787
sI201
F0.0682282398
sI202
F0.111078553
sI204
F0.0279058505
sI205
F0.0495734934
sI717
F0.0244394787
sI416
F0.0296571368
sI217
F0.0682282398
sI207
F0.1815742654
sI229
F0.0682282398
sI237
F0.0682282398
sI239
F0.0206660578
sI254
F0.093395028
sI767
F0.0309670822
sI768
F0.0744504342
sI785
F0.0682282398
sI808
F0.2238284194
sI297
F0.0632343819
sI312
F0.1356916133
sI367
F0.0682282398
sI374
F0.0296571368
sI380
F0.0921270196
sI904
F0.2005604992
sI407
F0.0244394787
sI408
F0.0296571368
sI405
F0.0270439757
sI919
F0.0448142176
sI920
F0.0682282398
sI921
F0.0468818182
sI410
F0.0702105066
sI923
F0.0682282398
sI413
F0.1828300612
sI926
F0.0283494504
sI927
F0.0442022042
sI928
F0.0362304474
sI929
F0.0231403682
sI930
F0.042866749
sI931
F0.0388770162
sI933
F0.0563593353
sI934
F0.0832279177
sI935
F0.0482261128
sI936
F0.0362304474
sI938
F0.042866749
sI940
F0.0415341076
sI941
F0.0388770162
sI942
F0.052277808
sI431
F0.0773017472
sI944
F0.0455405383
sI945
F0.04584884
sI947
F0.057726856
sI956
F0.0482261128
sI957
F0.0349109657
sI447
F0.0830687485
sI448
F0.2167430335
sI449
F0.0362304474
sI453
F0.0231403682
sI966
F0.0549953772
sI967
F0.0632343819
sI968
F0.1920171195
sI969
F0.0270439757
sI970
F0.0758735309
sI972
F0.0682282398
sI979
F0.0413512647
sI980
F0.0375524456
sI994
F0.0406385884
sI500
F0.0563593353
sI426
F0.0682282398
ssS'Or67b'
p70
(dp71
I1
F0.1163655811
sI5
F0.1811344621
sI8
F0.0595346922
sI941
F0.1044085221
sI21
F0.1483597464
sI22
F0.5306307343
sI23
F0.6902397473
sI536
F0.1804854307
sI25
F0.342788727
sI26
F0.9099064141
sI541
F0.2348589877
sI45
F0.790661011
sI559
F0.6582847901
sI48
F0.3679446706
sI49
F0.293171313
sI51
F0.6576018094
sI55
F0.2154995572
sI56
F0.4969330695
sI57
F0.2819823298
sI58
F0.1796116945
sI60
F0.1593849514
sI61
F0.3051387295
sI62
F0.1485120405
sI63
F0.9936119423
sI69
F0.1577151133
sI582
F0.1631184505
sI71
F0.1536768711
sI73
F0.148063349
sI74
F0.4159376994
sI75
F0.1141321238
sI79
F0.2014098478
sI440
F0.1844186161
sI82
F0.0937972901
sI83
F0.1566690645
sI84
F0.076570345
sI89
F0.2008723718
sI91
F0.6111488663
sI93
F0.0998810458
sI95
F0.161335154
sI97
F0.1565276153
sI99
F0.1645389842
sI100
F0.0592091711
sI614
F0.2490361616
sI102
F0.1193977744
sI615
F0.1505917857
sI108
F0.2328967549
sI109
F0.1378170291
sI110
F0.0845034054
sI111
F0.1139414301
sI112
F0.1215262857
sI114
F0.1370687834
sI116
F0.1577132292
sI121
F0.0739487217
sI123
F0.5872595967
sI124
F0.0809884779
sI145
F0.1673074057
sI146
F0.7137730537
sI538
F0.120281382
sI173
F0.3956560127
sI185
F0.3595133562
sI187
F0.0994429962
sI191
F0.1478573623
sI706
F0.11533374
sI198
F0.0885630859
sI202
F0.5007235399
sI204
F0.0995324827
sI717
F0.1267673387
sI206
F0.0830481878
sI211
F0.0942858151
sI217
F0.1900919549
sI222
F0.0928516149
sI736
F0.0531764625
sI229
F0.3194347549
sI746
F0.4733018936
sI237
F0.0898099673
sI239
F0.1312542775
sI245
F0.0815802065
sI254
F0.2247687318
sI767
F0.1004230493
sI781
F0.0843915651
sI795
F0.1886018485
sI297
F0.7062310698
sI823
F0.2336957888
sI367
F0.0706160863
sI380
F0.213896226
sI439
F0.5763945152
sI909
F0.3656332223
sI413
F0.1483955698
sI928
F0.171310863
sI424
F0.170222727
sI426
F0.1247910049
sI429
F0.0818106157
sI942
F0.0720368384
sI431
F0.0
sI945
F0.0469003838
sI951
F0.16635674
sI952
F0.0927242831
sI953
F0.0588572178
sI954
F0.1188327667
sI443
F0.5148092741
sI956
F0.1774295012
sI449
F0.3776768347
sI962
F0.524594347
sI963
F0.4746412306
sI964
F0.1234524297
sI965
F0.2858412516
sI970
F0.249034635
sI459
F0.0795100181
sI972
F0.9579440847
sI973
F0.7122976508
sI976
F0.2539015987
sI979
F0.2600701329
sI988
F0.6668492875
sI989
F0.2310864983
sI991
F0.088221728
sI992
F0.1124963287
sI993
F0.1093067406
sI994
F0.1107306953
ssS'Or67a'
p72
(dp73
I512
F0.0055867069
sI519
F0.0204845921
sI8
F0.031658006
sI525
F0.1049970307
sI15
F0.1225447731
sI16
F0.3764387578
sI205
F0.7165356273
sI19
F0.0484181269
sI21
F0.1770444652
sI22
F0.4626385596
sI26
F0.7203687281
sI539
F0.0727089741
sI541
F0.4052521679
sI550
F0.622624657
sI45
F0.6207081066
sI559
F0.3935493362
sI48
F0.525893078
sI51
F0.6513729132
sI55
F0.1654525635
sI56
F0.172418523
sI57
F0.4437580215
sI58
F0.3304667338
sI60
F0.0578970369
sI61
F0.0838838037
sI62
F0.0018622356
sI63
F0.2904493984
sI73
F0.1229353003
sI74
F0.6475398124
sI75
F0.4244220562
sI78
F0.1088983326
sI83
F0.031658006
sI84
F0.1347169907
sI91
F0.404046628
sI93
F0.1371229539
sI95
F0.4725622164
sI99
F0.0167601208
sI107
F0.6667053165
sI112
F0.0111734139
sI114
F0.1347169907
sI116
F0.1954429855
sI123
F0.1249999497
sI124
F0.6647887661
sI141
F0.1100826207
sI145
F0.2435488385
sI155
F0.0148978852
sI160
F0.031658006
sI167
F0.288046724
sI173
F0.2907951047
sI174
F0.1274442063
sI691
F0.3125251127
sI701
F0.0946134381
sI191
F0.0297957704
sI193
F0.1839609782
sI706
F0.0783595825
sI200
F0.5987858177
sI202
F0.1770444652
sI204
F0.0729662536
sI717
F0.0204845921
sI207
F0.6801211694
sI416
F0.0
sI217
F0.4576855352
sI237
F0.0223468278
sI239
F0.0473285489
sI254
F0.0409691843
sI767
F0.1537533118
sI768
F0.2620738204
sI808
F0.0335202417
sI297
F0.2904493984
sI312
F0.0892973317
sI374
F0.031658006
sI380
F0.1822720151
sI904
F0.4224038996
sI407
F0.0055867069
sI405
F0.1954429855
sI919
F0.0111734139
sI408
F0.0148978852
sI921
F0.0037244713
sI410
F0.0260712991
sI926
F0.0223468278
sI927
F0.0279335347
sI928
F0.0093111782
sI929
F0.0167601208
sI930
F0.0279335347
sI931
F0.0111734139
sI933
F0.0242090634
sI934
F0.1395205503
sI935
F0.0972385592
sI936
F0.0074489426
sI938
F0.0223468278
sI940
F0.0204845921
sI941
F0.0074489426
sI942
F0.0547915212
sI431
F0.6168750058
sI944
F0.0446936556
sI945
F0.2160368446
sI947
F0.0998434342
sI956
F0.0279335347
sI957
F0.0609499128
sI447
F0.1298781119
sI448
F0.2737886066
sI449
F0.1654525635
sI453
F0.0130356495
sI966
F0.0242090634
sI967
F0.0260712991
sI968
F0.2644067689
sI969
F0.0148978852
sI970
F0.0428314199
sI979
F0.1755094939
sI980
F0.6034591529
sI994
F0.0294609812
sI500
F0.2228991917
ssS'Or88a'
p74
(dp75
I512
F0.0417346646
sI519
F0.0461026196
sI8
F0.0635744398
sI525
F0.0744943275
sI15
F0.0154399919
sI16
F0.076678305
sI205
F0.0264468219
sI19
F0.0461026196
sI21
F0.0286307994
sI22
F0.100079157
sI26
F0.0679423949
sI539
F0.0242628444
sI541
F0.0208371812
sI550
F0.0504705747
sI45
F0.0329987545
sI559
F0.0592064848
sI48
F0.0782157972
sI51
F0.0526545522
sI55
F0.0526545522
sI56
F0.0592064848
sI57
F0.0592064848
sI58
F0.0548385297
sI60
F0.0482865972
sI61
F0.0395506871
sI62
F0.0613904623
sI63
F0.0242628444
sI73
F0.0709678376
sI74
F0.0482865972
sI75
F0.0393947675
sI78
F0.0482865972
sI83
F0.0526545522
sI84
F0.0744943275
sI91
F0.0935180473
sI93
F0.0657584174
sI95
F0.0570225073
sI99
F0.0504705747
sI107
F0.0395506871
sI112
F0.0526545522
sI114
F0.0439186421
sI116
F0.0832302376
sI123
F0.0548385297
sI124
F0.0439186421
sI141
F0.0439186421
sI145
F0.0110285656
sI155
F0.0701263724
sI160
F0.0897821701
sI167
F0.076678305
sI173
F0.0414033545
sI174
F0.0526545522
sI178
F0.0262711324
sI691
F0.0635744398
sI701
F0.0701263724
sI191
F0.0744943275
sI193
F0.017645705
sI706
F0.0395506871
sI200
F0.035182732
sI201
F0.2165530835
sI202
F0.0679423949
sI204
F0.0437027922
sI717
F0.0526545522
sI207
F0.0744943275
sI416
F0.0482865972
sI237
F0.0635744398
sI239
F0.0622583927
sI254
F0.0701263724
sI767
F0.0286307994
sI768
F0.0395506871
sI808
F0.0461026196
sI297
F0.0613904623
sI312
F0.0744943275
sI374
F0.0744943275
sI380
F0.1007641008
sI904
F0.0220571313
sI407
F0.0482865972
sI405
F0.0679423949
sI919
F0.0461026196
sI408
F0.0482865972
sI921
F0.0592064848
sI410
F0.0570225073
sI926
F0.0570225073
sI927
F0.0592064848
sI928
F0.0482865972
sI929
F0.0395506871
sI930
F0.0657584174
sI931
F0.0329987545
sI933
F0.0526545522
sI934
F0.0635744398
sI935
F0.0723103499
sI936
F0.0635744398
sI938
F0.0679423949
sI940
F0.0723103499
sI941
F0.0592064848
sI942
F0.0744943275
sI431
F0.0329987545
sI944
F0.0744943275
sI945
F0.0548385297
sI947
F0.0679423949
sI956
F0.0395506871
sI957
F0.0679423949
sI447
F0.0657584174
sI448
F0.0417346646
sI449
F0.0439186421
sI453
F0.0657584174
sI966
F0.0417346646
sI967
F0.0329987545
sI968
F0.0329987545
sI969
F0.076678305
sI970
F0.0592064848
sI979
F0.0548385297
sI980
F0.0701263724
sI994
F0.1174395654
sI500
F0.0
ssS'Or9a'
p76
(dp77
I512
F0.0890884328
sI519
F0.140541056
sI8
F0.0714971674
sI525
F0.0714971674
sI15
F0.1439022789
sI16
F0.5418928997
sI205
F0.265588233
sI19
F0.2471306844
sI21
F0.3708263804
sI22
F0.3779984732
sI26
F0.1337930997
sI539
F0.1638926983
sI541
F0.2030729219
sI550
F0.1371713384
sI45
F0.2777426054
sI559
F0.1236069919
sI48
F0.3257387504
sI51
F0.2625309068
sI55
F0.0960624584
sI56
F0.3957388533
sI57
F0.5200692383
sI58
F0.4877486793
sI60
F0.150599346
sI61
F0.1900820835
sI62
F0.0679519161
sI63
F0.5273930872
sI73
F0.2208575826
sI74
F0.1737753478
sI75
F0.4426027518
sI78
F0.2717823465
sI83
F0.1099046051
sI84
F0.0714971674
sI91
F0.3734751542
sI93
F0.2220906872
sI95
F0.4902691297
sI99
F0.140541056
sI107
F0.2189255913
sI112
F0.0543325192
sI114
F0.1439022789
sI116
F0.5442905794
sI123
F0.1572627495
sI124
F0.140541056
sI141
F0.3164318932
sI145
F0.6425476097
sI155
F0.0679519161
sI160
F0.1572627495
sI167
F0.5002933334
sI173
F0.1691550678
sI174
F0.1539352426
sI691
F0.2502259543
sI701
F0.6915050546
sI191
F0.0960624584
sI193
F0.4673747056
sI706
F0.1737753478
sI200
F0.1439022789
sI202
F0.3791900538
sI204
F0.0827503972
sI717
F0.0855880863
sI207
F0.2686380422
sI416
F0.0820788141
sI237
F0.0855880863
sI239
F0.064700228
sI254
F0.3736209417
sI767
F0.1965478524
sI768
F0.3957388533
sI257
F0.7990511026
sI808
F0.653392085
sI297
F0.1770530613
sI312
F0.5703147941
sI374
F0.0714971674
sI380
F0.4037993563
sI904
F0.6293813328
sI407
F0.0820788141
sI405
F0.0679519161
sI919
F0.1638926983
sI408
F0.1572627495
sI921
F0.1472550335
sI410
F0.1236069919
sI926
F0.0679519161
sI927
F0.1236069919
sI928
F0.1064572385
sI929
F0.0855880863
sI930
F0.150599346
sI931
F0.0890884328
sI933
F0.0960624584
sI934
F0.3764088256
sI935
F0.0714971674
sI936
F0.0543325192
sI938
F0.0785605886
sI940
F0.0679519161
sI941
F0.0855880863
sI942
F0.0995361923
sI431
F0.3680251201
sI944
F0.0820788141
sI945
F0.0960624584
sI947
F0.3280918264
sI956
F0.0960624584
sI957
F0.0855880863
sI447
F0.4360959967
sI448
F0.4147500641
sI449
F0.0820788141
sI453
F0.0643976006
sI966
F0.1605818927
sI967
F0.1472550335
sI968
F0.3539175722
sI969
F0.1030011099
sI970
F0.7385880952
sI979
F0.1770530613
sI980
F0.1472550335
sI994
F0.0
sI500
F0.2502259543
ssS'Or33b'
p78
(dp79
I512
F0.0397636469
sI519
F0.0119711131
sI8
F0.0784352276
sI525
F0.0438927669
sI15
F0.0397636469
sI16
F0.1698961415
sI205
F0.0055849649
sI19
F0.1253336282
sI21
F0.0559008273
sI22
F0.0171077743
sI26
F0.1315475226
sI539
F0.0673945459
sI541
F0.0110879731
sI550
F0.0269549521
sI45
F0.0242231187
sI559
F0.0559008273
sI48
F0.0108742846
sI49
F0.0257548362
sI51
F0.0361050037
sI55
F0.0269549521
sI56
F0.0564761914
sI57
F0.074801938
sI58
F0.0055849649
sI60
F0.1093289766
sI61
F0.0068550849
sI62
F0.0030731105
sI63
F0.1346181239
sI73
F0.0532168155
sI74
F0.0158467616
sI75
F0.1727313797
sI78
F0.2398026923
sI83
F0.0119711131
sI84
F0.0855702085
sI91
F0.0166725557
sI93
F0.0711223561
sI95
F0.0240689989
sI99
F0.008128714
sI107
F0.0043183089
sI111
F0.0437920079
sI112
F0.0180302979
sI114
F0.05429969
sI116
F0.0310689191
sI123
F0.0397636469
sI124
F0.0055849649
sI141
F0.0355664578
sI145
F0.0269549521
sI155
F0.0397636469
sI538
F0.0620053499
sI160
F0.0855702085
sI167
F0.0993601112
sI173
F0.0196727726
sI174
F0.0068550849
sI691
F0.0559008273
sI701
F0.1758812944
sI191
F0.059785985
sI193
F0.0673945459
sI706
F0.0068550849
sI198
F0.0437920079
sI200
F0.0205820215
sI202
F0.1436951831
sI204
F0.0361170912
sI717
F0.0145511053
sI207
F0.1670508842
sI416
F0.0145511053
sI217
F0.0167931078
sI229
F0.0437920079
sI237
F0.059785985
sI239
F0.0513461065
sI254
F0.0711223561
sI767
F0.0321562535
sI768
F0.0145511053
sI808
F0.1742071705
sI297
F0.1466787303
sI312
F0.0855702085
sI374
F0.0925410107
sI380
F0.0323426699
sI904
F0.1315475226
sI407
F0.0312980197
sI405
F0.0397636469
sI919
F0.0145511053
sI408
F0.0269549521
sI921
F0.0106866819
sI410
F0.0158467616
sI926
F0.0855702085
sI927
F0.0119711131
sI928
F0.0180302979
sI929
F0.0055849649
sI930
F0.0043183089
sI931
F0.0010243702
sI933
F0.0158467616
sI934
F0.0106866819
sI935
F0.0673945459
sI936
F0.0673945459
sI938
F0.0479568131
sI940
F0.0225336567
sI941
F0.0820240665
sI942
F0.0673945459
sI431
F0.1284529999
sI944
F0.0784352276
sI945
F0.1315475226
sI947
F0.0925410107
sI952
F0.0574337279
sI443
F0.0167931078
sI956
F0.0397636469
sI957
F0.0519586107
sI447
F0.1190164487
sI448
F0.1060389021
sI449
F0.0438927669
sI453
F0.0312980197
sI966
F0.149642525
sI967
F0.152587318
sI968
F0.1060389021
sI969
F0.0855702085
sI970
F0.152587318
sI979
F0.0784352276
sI980
F0.0094058976
sI994
F0.0600665562
sI500
F0.0
sI426
F0.0483275894
ssS'Or33c'
p80
(dp81
I229
F0.4528985507
sI198
F0.0
sI73
F0.2020123032
sI173
F0.1792044625
sI51
F0.1954957773
sI22
F0.3453758732
sI217
F0.1987540402
sI952
F0.289985403
sI825
F0.0358408925
sI95
F0.2215618809
ssS'Or33a'
p82
(dp83
I173
F0.0383838384
sI22
F0.063973064
sI538
F0.0127946128
sI111
F0.0170594837
sI541
F0.0213243547
sI426
F0.0127946128
sI45
F0.0255892256
sI48
F0.0213243547
sI49
F0.0213243547
sI51
F0.0127946128
sI56
F0.0341189675
sI443
F0.0170594837
sI198
F0.0341189675
sI73
F0.0127946128
sI75
F0.0
sI204
F0.0383838384
sI952
F0.0255892256
sI217
F0.0298540965
sI91
F0.0298540965
sI95
F0.0426487093
sI994
F0.0
sI229
F0.0383838384
sI239
F0.0085297419
sI114
F0.0341189675
sI116
F0.0085297419
sI380
F0.0213243547
sI767
F0.0341189675
ssS'Or1a'
p84
(dp85
I173
F0.0426487093
sI22
F0.1137298915
sI538
F0.0213243547
sI111
F0.0142162364
sI541
F0.0995136551
sI426
F0.0
sI45
F0.031986532
sI48
F0.0924055368
sI49
F0.0177702955
sI51
F0.0852974186
sI56
F0.0355405911
sI443
F0.0675271231
sI198
F0.0462027684
sI73
F0.0106621773
sI75
F0.0106621773
sI204
F0.1066217733
sI952
F0.0
sI217
F0.1279461279
sI91
F0.0781893004
sI95
F0.0675271231
sI994
F0.0071081182
sI229
F0.0248784138
sI239
F0.0106621773
sI114
F0.0142162364
sI116
F0.031986532
sI380
F0.0248784138
sI767
F0.0248784138
ssS'Or19a'
p86
(dp87
I512
F0.120515014
sI519
F0.0579399106
sI8
F0.1795224948
sI525
F0.1795224948
sI15
F0.4194399597
sI16
F0.3752149739
sI205
F0.3273973222
sI19
F0.1479327074
sI21
F0.0834334713
sI22
F0.5180978713
sI25
F0.6422674551
sI26
F0.1593030539
sI539
F0.1255889867
sI541
F0.5796053369
sI550
F0.1394922498
sI45
F0.1339064954
sI559
F0.0509871213
sI48
F0.5099033427
sI51
F0.0857510677
sI55
F0.0324463499
sI56
F0.2642104667
sI57
F0.2966686358
sI58
F0.1479327074
sI60
F0.2061103456
sI61
F0.0533047177
sI62
F0.060257507
sI63
F0.3752149739
sI73
F0.1381736821
sI74
F0.1066094355
sI75
F0.3089972956
sI78
F0.0903862605
sI83
F0.0834334713
sI84
F0.1255889867
sI91
F0.5452907623
sI93
F0.2673312494
sI95
F0.4480853863
sI99
F0.1394922498
sI107
F0.092703857
sI112
F0.076480682
sI114
F0.1339064954
sI116
F0.1181974176
sI123
F0.0741630856
sI124
F0.2061103456
sI141
F0.18831229
sI145
F0.2061103456
sI155
F0.1766090417
sI160
F0.0903862605
sI167
F0.1066094355
sI173
F0.1990410818
sI174
F0.1795224948
sI691
F0.1042918391
sI701
F0.3433427202
sI191
F0.1708070286
sI193
F0.1181974176
sI706
F0.0625751034
sI200
F0.2425251193
sI202
F0.3561028829
sI204
F0.1324305555
sI717
F0.076480682
sI207
F0.2924699253
sI416
F0.1019742426
sI237
F0.4005696073
sI239
F0.1390585324
sI254
F0.1737038786
sI767
F0.0834334713
sI768
F0.1451109398
sI808
F0.3114840528
sI297
F0.0996566462
sI312
F0.2610950755
sI374
F0.0695278927
sI380
F0.1814275968
sI904
F0.3433427202
sI407
F0.0811158748
sI405
F0.0718454891
sI919
F0.0996566462
sI408
F0.0811158748
sI921
F0.1089270319
sI410
F0.0973390498
sI926
F0.0672102963
sI927
F0.120515014
sI928
F0.1283533952
sI929
F0.0509871213
sI930
F0.1181974176
sI931
F0.0695278927
sI933
F0.1112446283
sI934
F0.0996566462
sI935
F0.2704572501
sI936
F0.2363854117
sI938
F0.4957053046
sI940
F0.1042918391
sI941
F0.1795224948
sI942
F0.3783941154
sI431
F0.0695278927
sI944
F0.1824442101
sI945
F0.5016089408
sI947
F0.3974115861
sI956
F0.0
sI957
F0.092703857
sI447
F0.1158798212
sI448
F0.359291533
sI449
F0.1366952718
sI453
F0.0625751034
sI966
F0.0834334713
sI967
F0.092703857
sI968
F0.3783941154
sI969
F0.0718454891
sI970
F0.076480682
sI979
F0.2272267731
sI980
F0.18831229
sI994
F0.0144926776
sI500
F0.2241879637
ssS'ab2B'
p88
(dp89
I257
F0.0082945154
sI201
F0.0392599951
sI449
F0.0082945154
sI8
F0.0106902804
sI237
F0.0139864019
sI656
F0.0257351373
sI785
F0.0156976391
sI985
F0.0082945154
sI367
F0.0139864019
sI20
F0.0139864019
sI22
F0.0142254212
sI919
F0.0090174289
sI920
F0.0090174289
sI559
F0.0094923979
sI26
F0.0082945154
sI923
F0.0350303401
sI541
F0.0648170338
sI795
F0.0082945154
sI164
F0.0073445773
sI934
F0.0305544762
sI426
F0.0139864019
sI173
F0.0239285649
sI174
F0.0082945154
sI431
F0.0082945154
sI48
F0.0180774224
sI945
F0.0039988741
sI178
F0.0139864019
sI51
F0.0139864019
sI73
F0.0353537769
sI56
F0.02037539
sI57
F0.0082945154
sI58
F0.0139864019
sI970
F0.0082945154
sI318
F0.0082945154
sI191
F0.0257351373
sI448
F0.2528350159
sI961
F0.0082945154
sI706
F0.0139864019
sI75
F0.3154735293
sI198
F0.0106902804
sI200
F0.0082945154
sI972
F0.0257351373
sI202
F0.0283624105
sI971
F0.381062173
sI204
F0.0007013817
sI45
F0.02037539
sI78
F0.0866162657
sI979
F0.0106902804
sI217
F0.0498027213
sI91
F0.2722581859
sI93
F0.0082945154
sI95
F0.0472075375
sI994
F0.0
sI229
F0.0090174289
sI614
F0.0951775636
sI145
F0.5437561135
sI746
F0.0082945154
sI620
F0.0090174289
sI109
F0.0090174289
sI239
F0.0112812854
sI500
F0.0082945154
sI413
F0.0920996321
sI634
F0.0082945154
sI380
F0.0186565323
ssS'Or98a'
p90
(dp91
I512
F0.1017981715
sI519
F0.0169631617
sI8
F0.4836064202
sI525
F0.0921974615
sI15
F0.1049984081
sI16
F0.2682104772
sI19
F0.020355794
sI21
F0.0424079042
sI22
F0.621164369
sI26
F0.0220521102
sI539
F0.3514166301
sI541
F0.6371342372
sI550
F0.1049984081
sI45
F0.2721639251
sI559
F0.2703795193
sI48
F0.6065864229
sI51
F0.1133175273
sI55
F0.1113988814
sI56
F0.0803060202
sI57
F0.6980680652
sI58
F0.0963656723
sI60
F0.069795805
sI61
F0.1209995914
sI62
F0.0271410587
sI63
F0.4698253861
sI73
F0.0752167635
sI74
F0.7789996859
sI75
F0.2416305217
sI78
F0.1253149379
sI82
F0.109110821
sI83
F0.188204561
sI84
F0.3130137903
sI91
F0.4268085005
sI93
F0.2778111871
sI95
F0.6791504693
sI99
F0.060195095
sI614
F0.109110821
sI107
F0.6963086821
sI620
F0.109110821
sI109
F0.109110821
sI112
F0.0220521102
sI114
F0.0633953317
sI116
F0.5210291725
sI123
F0.1145991181
sI124
F0.020355794
sI141
F0.2394083474
sI656
F0.109110821
sI145
F0.629452126
sI155
F0.020355794
sI160
F0.0424079042
sI164
F0.109110821
sI167
F0.2490090573
sI173
F0.1301554713
sI174
F0.0441939118
sI178
F0.109110821
sI691
F0.1209995914
sI701
F0.2874118971
sI191
F0.1311615853
sI193
F0.0633953317
sI706
F0.0856592375
sI198
F0.109110821
sI200
F0.2042057442
sI201
F0.109110821
sI202
F0.099042281
sI204
F0.0739906822
sI205
F0.7068649805
sI717
F0.0322300072
sI416
F0.0985979348
sI217
F0.6225400915
sI207
F0.6400084243
sI229
F0.109110821
sI237
F0.109110821
sI239
F0.2588853552
sI254
F0.0857969882
sI767
F0.0
sI768
F0.7262181941
sI785
F0.109110821
sI808
F0.0254447425
sI297
F0.0373189557
sI312
F0.6646397871
sI367
F0.109110821
sI374
F0.0569948584
sI380
F0.1064325088
sI904
F0.4666251494
sI407
F0.0665955683
sI408
F0.0793965149
sI405
F0.0505943851
sI919
F0.1017188897
sI920
F0.109110821
sI921
F0.0953976982
sI410
F0.0373189557
sI923
F0.109110821
sI413
F0.109110821
sI926
F0.0537946217
sI927
F0.0424079042
sI928
F0.0889972249
sI929
F0.0271410587
sI930
F0.0373189557
sI931
F0.0424079042
sI933
F0.069795805
sI934
F0.1115331215
sI935
F0.2874118971
sI936
F0.0305336911
sI938
F0.0237484264
sI940
F0.0322300072
sI941
F0.0288373749
sI942
F0.0633953317
sI431
F0.1338005379
sI944
F0.2362081107
sI945
F0.4708068546
sI947
F0.1434012479
sI956
F0.0633953317
sI957
F0.0985979348
sI447
F0.1049984081
sI448
F0.6017674002
sI449
F0.1177993547
sI453
F0.0441939118
sI966
F0.0441939118
sI967
F0.0407115881
sI968
F0.3226145002
sI969
F0.0322300072
sI970
F0.0537946217
sI972
F0.109110821
sI979
F0.4274072291
sI980
F0.0424079042
sI994
F0.0836875791
sI500
F0.629452126
sI426
F0.109110821
ssS'Or35a'
p92
(dp93
I512
F0.1102977808
sI519
F0.0603098494
sI8
F0.1945387089
sI525
F0.0649420406
sI15
F0.7946269802
sI16
F0.7940726148
sI19
F0.3077309321
sI21
F0.1339017922
sI22
F0.3461826864
sI23
F0.4491489951
sI536
F0.5014335137
sI25
F0.4297814411
sI26
F0.5320209149
sI539
F0.2296087773
sI541
F0.6719059658
sI410
F0.0579936373
sI550
F0.0356781476
sI45
F0.0581768011
sI559
F0.0173282554
sI48
F0.7562957976
sI49
F0.0433462803
sI51
F0.4708167889
sI52
F0.0391660937
sI55
F0.3840940715
sI56
F0.7847020518
sI57
F0.301178729
sI58
F0.1163488232
sI60
F0.095911876
sI61
F0.733834486
sI62
F0.0556773113
sI63
F0.8364671267
sI69
F0.2530119645
sI71
F0.3015803263
sI73
F0.0879972176
sI74
F0.0312986295
sI75
F0.3435236496
sI78
F0.0672580747
sI83
F0.0487273814
sI84
F0.1053848229
sI89
F0.6700430351
sI91
F0.8386161966
sI93
F0.7542762026
sI95
F0.1760635652
sI99
F0.0672580747
sI107
F0.034217598
sI109
F0.1239538364
sI110
F0.4999036668
sI111
F0.3293346409
sI112
F0.0464103326
sI114
F0.0484623299
sI116
F0.5296349829
sI123
F0.4627407517
sI636
F0.7923793672
sI449
F0.8114492271
sI141
F0.0854722564
sI145
F0.631111725
sI155
F0.1053848229
sI538
F0.4177769627
sI160
F0.05104421
sI167
F0.4754039067
sI173
F0.7375210648
sI174
F0.0626130148
sI691
F0.4044383052
sI701
F0.6522059981
sI191
F0.1151850846
sI193
F0.3987646116
sI706
F0.1004460022
sI198
F0.0415540017
sI200
F0.0243010892
sI202
F0.7888949913
sI204
F0.0756923154
sI717
F0.1151850846
sI205
F0.0371394158
sI416
F0.0371394158
sI217
F0.6329844938
sI207
F0.6893302188
sI229
F0.699380764
sI124
F0.2296087773
sI237
F0.2918513146
sI239
F0.0651700431
sI254
F0.0804278691
sI767
F0.0495539081
sI768
F0.1296951315
sI808
F0.2338973359
sI297
F0.2745545188
sI312
F0.1855531707
sI314
F0.6814920766
sI374
F0.0579936373
sI380
F0.1852649293
sI904
F0.7824137335
sI407
F0.0417754698
sI408
F0.0394576045
sI405
F0.0417754698
sI919
F0.1702774971
sI920
F0.1974102517
sI921
F0.1200469411
sI922
F0.204806142
sI924
F0.5293150664
sI925
F0.4491489951
sI926
F0.0417754698
sI927
F0.0854722564
sI928
F0.0626259747
sI929
F0.2381653136
sI930
F0.0854722564
sI931
F0.0464103326
sI933
F0.1053848229
sI934
F0.7202327228
sI935
F0.095481109
sI936
F0.075356553
sI938
F0.0556773113
sI940
F0.075356553
sI941
F0.1296951315
sI942
F0.1486950747
sI431
F0.6893302188
sI944
F0.1102977808
sI945
F0.1855531707
sI947
F0.0533608444
sI952
F0.0415540017
sI443
F0.8378644238
sI956
F0.0200228845
sI957
F0.0440930373
sI447
F0.6544306079
sI448
F0.8066384005
sI961
F0.0
sI453
F0.5501374517
sI966
F0.2381653136
sI967
F0.2209692357
sI968
F0.7553758421
sI969
F0.0556773113
sI970
F0.0804278691
sI979
F0.8162500421
sI980
F0.0256858664
sI994
F0.0665740389
sI500
F0.0417754698
sI426
F0.1053936779
ssS'Or7a'
p94
(dp95
I512
F0.1324859217
sI519
F0.1296024362
sI8
F0.1948797838
sI525
F0.1735667646
sI15
F0.0969508277
sI16
F0.5418376874
sI19
F0.5893934285
sI21
F0.1735667646
sI22
F0.1495904372
sI26
F0.1590367257
sI539
F0.0808794169
sI541
F0.2002660106
sI550
F0.1142867711
sI45
F0.1819480389
sI559
F0.2322206158
sI48
F0.1665242923
sI49
F0.0948806723
sI51
F0.7902269837
sI55
F0.2705639246
sI56
F0.6133271562
sI57
F0.0931532957
sI58
F0.2306929771
sI60
F0.1590367257
sI61
F0.5785914129
sI62
F0.1324859217
sI63
F0.4940565283
sI73
F0.1859325951
sI74
F0.0892191167
sI75
F0.1671293394
sI78
F0.2901810551
sI82
F0.1792885003
sI83
F0.1236694692
sI84
F0.153998532
sI91
F0.3976982298
sI93
F0.0931532957
sI95
F0.09560386
sI99
F0.1711980549
sI614
F0.1792885003
sI107
F0.0562403488
sI620
F0.1792885003
sI109
F0.5260271812
sI111
F0.137918673
sI112
F0.1236694692
sI114
F0.0225953854
sI116
F0.1753857021
sI123
F0.5580543392
sI124
F0.2029986208
sI141
F0.2223991427
sI656
F0.5260271812
sI145
F0.0562403488
sI155
F0.1488416476
sI538
F0.0840506487
sI160
F0.1353191783
sI164
F0.1792885003
sI167
F0.1488416476
sI173
F0.8123557228
sI174
F0.1408483357
sI178
F0.1792885003
sI691
F0.2287606646
sI701
F0.321006971
sI191
F0.1966316261
sI193
F0.1565315653
sI706
F0.1336237814
sI198
F0.118739295
sI200
F0.1142867711
sI201
F0.1792885003
sI202
F0.5222373685
sI204
F0.1400704377
sI205
F0.0717823938
sI717
F0.1353191783
sI416
F0.1324859217
sI217
F0.1339094016
sI207
F0.6569406189
sI229
F0.1365282852
sI237
F0.1792885003
sI239
F0.1598475758
sI254
F0.5386788997
sI767
F0.0896932721
sI768
F0.146213837
sI785
F0.1792885003
sI808
F0.4256680784
sI297
F0.1639698745
sI312
F0.2371864217
sI367
F0.1792885003
sI374
F0.1174856403
sI380
F0.2105963953
sI904
F0.5055014616
sI407
F0.1174856403
sI408
F0.3874774888
sI405
F0.1353191783
sI919
F0.0377281891
sI920
F0.1792885003
sI921
F0.0
sI410
F0.1236694692
sI923
F0.1792885003
sI413
F0.1792885003
sI926
F0.1076441219
sI927
F0.1110085667
sI928
F0.1206113554
sI929
F0.4560868259
sI930
F0.2726456021
sI931
F0.153998532
sI933
F0.146213837
sI934
F0.210211947
sI935
F0.1664008111
sI936
F0.1206113554
sI938
F0.1615156535
sI940
F0.1759170091
sI941
F0.1615156535
sI942
F0.1639698745
sI431
F0.5750756821
sI944
F0.1759170091
sI945
F0.2134964148
sI947
F0.1110085667
sI952
F0.0867395271
sI443
F0.1003770108
sI956
F0.1041856912
sI957
F0.2223991427
sI447
F0.0029128526
sI448
F0.6564266039
sI449
F0.1408483357
sI453
F0.1408483357
sI966
F0.2029986208
sI967
F0.2266446879
sI968
F0.4968901921
sI969
F0.146213837
sI970
F0.1076441219
sI972
F0.1792885003
sI979
F0.6849993092
sI980
F0.1206113554
sI994
F0.1879732743
sI500
F0.2413803705
sI426
F0.121361325
ssS'Or23a'
p96
(dp97
I512
F0.0131559242
sI519
F0.0109632702
sI8
F0.0131559242
sI525
F0.0109632702
sI15
F0.0219265404
sI16
F0.2627443693
sI205
F0.1482791302
sI19
F0.0306971565
sI21
F0.0263118485
sI22
F0.151925504
sI26
F0.0153485783
sI539
F0.0263118485
sI541
F0.0888052092
sI550
F0.0109632702
sI45
F0.0065779621
sI559
F0.0219265404
sI48
F0.1308738855
sI51
F0.0087706162
sI55
F0.0065779621
sI56
F0.1905274519
sI57
F0.1526626882
sI58
F0.0131559242
sI60
F0.0263118485
sI61
F0.0644822492
sI62
F0.0241191944
sI63
F0.1772958721
sI73
F0.0320308576
sI74
F0.0065779621
sI75
F0.059133803
sI78
F0.0087706162
sI83
F0.0219265404
sI84
F0.0065779621
sI91
F0.2103049529
sI93
F0.0241191944
sI95
F0.1113045357
sI99
F0.0131559242
sI107
F0.0065779621
sI112
F0.0109632702
sI114
F0.0131559242
sI116
F0.0591993944
sI123
F0.0087706162
sI124
F0.0241191944
sI141
F0.0541396025
sI145
F0.1711917589
sI155
F0.0065779621
sI160
F0.0241191944
sI167
F0.0241191944
sI173
F0.2032190059
sI174
F0.0109632702
sI691
F0.0285045025
sI701
F0.1905274519
sI191
F0.0065779621
sI193
F0.0644822492
sI706
F0.0043853081
sI200
F0.0644822492
sI202
F0.167894124
sI204
F0.0255312045
sI717
F0.0153485783
sI207
F0.1336793142
sI416
F0.0109632702
sI229
F0.1577756539
sI237
F0.0109632702
sI239
F0.0326181756
sI254
F0.0541396025
sI767
F0.002192654
sI768
F0.0447347587
sI808
F0.1526626882
sI297
F0.0087706162
sI312
F0.0447347587
sI374
F0.0131559242
sI380
F0.0736590847
sI904
F0.1880481437
sI407
F0.0175412323
sI405
F0.0175412323
sI919
F0.0153485783
sI408
F0.0087706162
sI921
F0.0043853081
sI410
F0.0
sI926
F0.0153485783
sI927
F0.002192654
sI928
F0.0175412323
sI929
F0.0306971565
sI930
F0.0175412323
sI931
F0.0153485783
sI933
F0.0131559242
sI934
F0.0153485783
sI935
F0.0131559242
sI936
F0.0109632702
sI938
F0.0087706162
sI940
F0.0131559242
sI941
F0.0087706162
sI942
F0.0109632702
sI431
F0.0674504484
sI944
F0.0131559242
sI945
F0.0263118485
sI947
F0.0403971745
sI956
F0.0087706162
sI957
F0.0065779621
sI447
F0.0563679641
sI448
F0.1905274519
sI449
F0.0219265404
sI453
F0.0109632702
sI966
F0.0131559242
sI967
F0.0328898106
sI968
F0.2224077195
sI969
F0.0043853081
sI970
F0.0109632702
sI971
F0.1147779434
sI979
F0.0285045025
sI980
F0.1387825903
sI994
F0.0238891608
sI500
F0.0447347587
ssS'ab4B'
p98
(dp99
I8
F0.0
sI237
F0.0
sI656
F0.0
sI785
F0.0
sI367
F0.0
sI22
F0.0
sI920
F0.0
sI201
F0.0
sI923
F0.0
sI541
F0.0
sI164
F0.0
sI934
F0.0
sI426
F0.0
sI173
F0.0
sI559
F0.0
sI48
F0.0
sI945
F0.0
sI178
F0.0
sI51
F0.0
sI73
F0.0
sI56
F0.0
sI58
F0.0
sI191
F0.0
sI448
F0.0
sI706
F0.0
sI198
F0.0
sI972
F0.0
sI202
F0.0
sI75
F0.0
sI204
F0.0
sI45
F0.0
sI78
F0.0
sI82
F0.0
sI979
F0.0
sI217
F0.0
sI91
F0.0
sI95
F0.0
sI994
F0.0
sI229
F0.0
sI614
F0.0
sI620
F0.0
sI109
F0.0
sI239
F0.0
sI413
F0.0
sI380
F0.0
ssS'Or2a'
p100
(dp101
I512
F0.0302531404
sI519
F0.0279659156
sI8
F0.0234646077
sI525
F0.0325660269
sI15
F0.0302531404
sI16
F0.134859706
sI205
F0.1876888413
sI19
F0.1262100673
sI21
F0.0470435343
sI22
F0.1581231082
sI26
F0.0325660269
sI539
F0.044553167
sI541
F0.1027752501
sI550
F0.0547252515
sI45
F0.023088561
sI559
F0.0521280443
sI48
F0.1854895315
sI49
F0.0175896099
sI51
F0.0335679664
sI55
F0.1764567279
sI56
F0.1270951574
sI57
F0.1974338431
sI58
F0.0547252515
sI60
F0.0470435343
sI61
F0.0770643396
sI62
F0.0234646077
sI63
F0.110385002
sI73
F0.0279810631
sI74
F0.0302531404
sI75
F0.0373897157
sI78
F0.083165391
sI83
F0.0372729323
sI84
F0.0257033797
sI91
F0.1235256523
sI93
F0.110385002
sI95
F0.2295708656
sI99
F0.0234646077
sI107
F0.0302531404
sI111
F0.026146344
sI112
F0.0234646077
sI114
F0.0215720266
sI116
F0.105260886
sI123
F0.0863083816
sI124
F0.044553167
sI141
F0.1540277397
sI145
F0.2014547892
sI155
F0.0234646077
sI538
F0.026146344
sI160
F0.0396691632
sI167
F0.0961487038
sI173
F0.0547623579
sI174
F0.0372729323
sI691
F0.0495679971
sI701
F0.1489712545
sI191
F0.0349055985
sI193
F0.1141766217
sI706
F0.0302531404
sI198
F0.0002352967
sI200
F0.0863083816
sI202
F0.1141766217
sI204
F0.0394352521
sI717
F0.0349055985
sI207
F0.1394005841
sI416
F0.0302531404
sI217
F0.1926162863
sI229
F0.100795683
sI237
F0.0349055985
sI239
F0.024209534
sI254
F0.083165391
sI767
F0.0038744725
sI768
F0.0547252515
sI808
F0.1304662711
sI297
F0.0190548745
sI312
F0.1180732508
sI374
F0.0257033797
sI380
F0.043170955
sI904
F0.1857897435
sI407
F0.0396691632
sI405
F0.0190548745
sI919
F0.0420954874
sI408
F0.0349055985
sI921
F0.0302531404
sI410
F0.0257033797
sI926
F0.0279659156
sI927
F0.0234646077
sI928
F0.0396691632
sI929
F0.0131444518
sI930
F0.0349055985
sI931
F0.0349055985
sI933
F0.0325660269
sI934
F0.0470435343
sI935
F0.0147301607
sI936
F0.0349055985
sI938
F0.0257033797
sI940
F0.0257033797
sI941
F0.0325660269
sI942
F0.0325660269
sI431
F0.0547252515
sI944
F0.0470435343
sI945
F0.0711898613
sI947
F0.1141766217
sI952
F0.0175896099
sI443
F0.0733140176
sI956
F0.0741001784
sI957
F0.0627570384
sI447
F0.0655206274
sI448
F0.134859706
sI449
F0.0372729323
sI453
F0.0302531404
sI966
F0.0521280443
sI967
F0.0372729323
sI968
F0.1304662711
sI969
F0.0325660269
sI970
F0.0420954874
sI971
F0.1564743778
sI979
F0.0863083816
sI980
F0.0683308146
sI994
F0.0
sI500
F0.1540277397
sI426
F0.0175896099
ssS'ac3a'
p102
(dp103
I961
F0.0371450682
sI23
F0.0464313352
sI63
F0.0371450682
sI15
F0.0990535151
sI16
F0.0433359129
sI536
F0.0866718257
sI21
F0.009286267
sI22
F0.0371450682
sI919
F0.009286267
sI920
F0.0309542235
sI25
F0.0464313352
sI922
F0.0495267575
sI924
F0.0
sI925
F0.009286267
sI541
F0.1423894279
sI93
F0.0402404905
sI297
F0.0278588011
sI538
F0.0495267575
sI173
F0.1176260492
sI174
F0.3064468123
sI559
F0.0464313352
sI48
F0.0278588011
sI51
F0.009286267
sI52
F0.0526221799
sI55
F0.4890767308
sI56
F0.0061908447
sI57
F0.0309542235
sI58
F0.3776415263
sI60
F0.071194714
sI61
F0.0866718257
sI447
F0.0495267575
sI193
F0.0216679564
sI69
F0.0464313352
sI71
F0.0464313352
sI202
F0.0
sI89
F0.0464313352
sI91
F0.0650038693
sI314
F0.0123816894
sI229
F0.0464313352
sI956
F0.6624203822
sI109
F0.0433359129
sI110
F0.0835764034
sI114
F0.4859813084
sI123
F0.1423894279
sI636
F0.0340496458
ssS'Or85a'
p104
(dp105
I512
F0.0216433565
sI519
F0.0283028509
sI8
F0.0399569659
sI525
F0.0543833614
sI15
F0.0577971747
sI16
F0.1770571229
sI205
F0.0299677244
sI19
F0.0436933313
sI21
F0.0473380721
sI22
F0.1499000517
sI26
F0.0543833614
sI539
F0.019978483
sI541
F0.1689876227
sI550
F0.0283028509
sI45
F0.0
sI559
F0.077078245
sI48
F0.1230470576
sI51
F0.0676690817
sI55
F0.0611461221
sI56
F0.0508990788
sI57
F0.0233082301
sI58
F0.0249731037
sI60
F0.0233082301
sI61
F0.106145238
sI62
F0.0332974716
sI63
F0.2919291319
sI73
F0.2070297743
sI74
F0.0183136094
sI75
F0.4878158079
sI78
F0.1693464605
sI83
F0.0349623452
sI84
F0.0349623452
sI91
F0.4969780559
sI93
F0.0266379773
sI95
F0.0149838622
sI99
F0.0299677244
sI107
F0.0577971747
sI112
F0.0473380721
sI114
F0.031632598
sI116
F0.019978483
sI123
F0.0382920923
sI124
F0.0366272187
sI141
F0.1564903248
sI145
F0.6543712328
sI155
F0.0399569659
sI160
F0.0249731037
sI167
F0.0543833614
sI173
F0.1087614522
sI174
F0.0473380721
sI691
F0.0283028509
sI701
F0.1719156618
sI191
F0.0708517578
sI193
F0.0283028509
sI706
F0.0332974716
sI200
F0.0049946207
sI202
F0.0166487358
sI204
F0.0382120905
sI717
F0.0473380721
sI207
F0.0801285759
sI416
F0.0283028509
sI237
F0.0543833614
sI239
F0.0407340185
sI254
F0.1461545146
sI767
F0.0183136094
sI768
F0.307320893
sI808
F0.106145238
sI297
F0.0349623452
sI312
F0.0033297472
sI374
F0.0233082301
sI380
F0.1456420968
sI904
F0.5443960867
sI407
F0.0083243679
sI405
F0.0299677244
sI919
F0.019978483
sI408
F0.0473380721
sI921
F0.0233082301
sI410
F0.031632598
sI413
F0.1959629021
sI926
F0.0473380721
sI927
F0.0266379773
sI928
F0.0473380721
sI929
F0.0508990788
sI930
F0.0266379773
sI931
F0.0399569659
sI933
F0.0233082301
sI934
F0.1198021948
sI935
F0.031632598
sI936
F0.0543833614
sI938
F0.0708517578
sI940
F0.0349623452
sI941
F0.0473380721
sI942
F0.0216433565
sI431
F0.0382920923
sI944
F0.0382920923
sI945
F0.0149838622
sI947
F0.0739870099
sI956
F0.0919745731
sI957
F0.10335796
sI447
F0.0366272187
sI448
F0.4700760585
sI449
F0.1590650293
sI453
F0.0611461221
sI966
F0.0890615325
sI967
F0.09771639
sI968
F0.0739870099
sI969
F0.0473380721
sI970
F0.0861177027
sI979
F0.0436933313
sI980
F0.0216433565
sI994
F0.0721154819
sI500
F0.0149838622
ssS'Or85f'
p106
(dp107
I512
F0.0395511267
sI519
F0.0923772415
sI8
F0.0850685801
sI525
F0.0426988916
sI15
F0.0650211432
sI16
F0.2151047623
sI205
F0.1242296722
sI19
F0.0948039043
sI21
F0.1426562789
sI22
F0.1816370598
sI26
F0.0597623502
sI539
F0.1167405576
sI541
F0.1131401155
sI550
F0.0570725687
sI45
F0.2802556111
sI559
F0.0899469023
sI48
F0.1331644425
sI51
F0.1555333001
sI55
F0.0850685801
sI56
F0.1093746691
sI57
F0.2151047623
sI58
F0.0923772415
sI60
F0.0923772415
sI61
F0.1483574095
sI62
F0.0570725687
sI63
F0.2026912008
sI73
F0.0732650941
sI74
F0.0923772415
sI75
F0.0980805757
sI78
F0.1045052054
sI83
F0.070152965
sI84
F0.0395511267
sI91
F0.2329944698
sI93
F0.0426988916
sI95
F0.1069370199
sI99
F0.0751894232
sI107
F0.1575817187
sI112
F0.051538113
sI114
F0.0776796972
sI116
F0.1644274491
sI123
F0.1045052054
sI124
F0.0676007428
sI141
F0.2663094523
sI145
F0.2563479104
sI155
F0.0486755305
sI160
F0.070152965
sI167
F0.1142745252
sI173
F0.1228488685
sI174
F0.0751894232
sI691
F0.0972284764
sI701
F0.2284555929
sI191
F0.0233972894
sI193
F0.1815381954
sI706
F0.0850685801
sI200
F0.0650211432
sI202
F0.1426562789
sI204
F0.0575850227
sI717
F0.051538113
sI207
F0.1319144707
sI416
F0.0395511267
sI237
F0.0395511267
sI239
F0.0192085441
sI254
F0.0996525148
sI767
F0.1167405576
sI768
F0.0996525148
sI808
F0.1399007523
sI297
F0.1020775699
sI312
F0.13719652
sI374
F0.0233972894
sI380
F0.0819453818
sI904
F0.254355602
sI407
F0.0291516279
sI405
F0.0118886124
sI919
F0.0597623502
sI408
F0.0597623502
sI921
F0.0801548184
sI410
F0.0751894232
sI926
F0.0328142289
sI927
F0.0570725687
sI928
F0.0676007428
sI929
F0.0570725687
sI930
F0.0650211432
sI931
F0.0801548184
sI933
F0.0650211432
sI934
F0.1454716872
sI935
F0.051538113
sI936
F0.0395511267
sI938
F0.0486755305
sI940
F0.0253154023
sI941
F0.051538113
sI942
F0.0291516279
sI431
F0.1966090771
sI944
F0.051538113
sI945
F0.0486755305
sI947
F0.1513262779
sI956
F0.0597623502
sI957
F0.0426988916
sI447
F0.2158557862
sI448
F0.2384171348
sI449
F0.0395511267
sI453
F0.0624099702
sI966
F0.0543338569
sI967
F0.0426988916
sI968
F0.1721953164
sI969
F0.0426988916
sI970
F0.0624099702
sI971
F0.2162872624
sI979
F0.0676007428
sI980
F0.070152965
sI994
F0.0
sI500
F0.1217156362
ssS'Or85e'
p108
(dp109
I229
F0.7509433962
sI198
F0.1886792453
sI73
F0.5471698113
sI173
F0.1547169811
sI51
F0.2339622642
sI22
F0.1094339623
sI217
F0.1132075472
sI952
F1.0
sI825
F0.0188679245
sI95
F0.2339622642
ssS'Or85d'
p110
(dp111
I229
F0.0557420695
sI198
F0.0283156008
sI73
F0.0926380826
sI173
F0.0912091687
sI51
F0.1233337808
sI22
F0.4368368368
sI217
F0.3170533456
sI952
F0.0
sI825
F0.0368891944
sI95
F0.2785180108
ssS'ac2b'
p112
(dp113
I961
F0.0531708668
sI23
F0.0886181113
sI63
F0.0443090557
sI15
F0.0827102372
sI16
F0.0088618111
sI536
F0.0886181113
sI21
F0.0443090557
sI22
F0.0472629927
sI919
F0.0443090557
sI920
F0.0324933075
sI25
F0.0856641743
sI922
F0.0443090557
sI924
F0.0118157482
sI925
F0.0177236223
sI541
F0.0531708668
sI93
F0.0531708668
sI297
F0.0384011816
sI538
F0.0856641743
sI173
F0.2038216561
sI174
F0.0856641743
sI559
F0.0443090557
sI48
F0.1270192929
sI51
F0.0531708668
sI52
F0.0886181113
sI55
F0.1063417336
sI56
F0.0
sI57
F0.0443090557
sI58
F0.1092956706
sI60
F0.0531708668
sI61
F0.0561248038
sI447
F0.0384011816
sI193
F0.0443090557
sI69
F0.0856641743
sI71
F0.0974799225
sI202
F0.0177236223
sI971
F0.0295393704
sI89
F0.0856641743
sI91
F0.0236314964
sI314
F0.0295393704
sI229
F0.0324933075
sI956
F0.1211114188
sI109
F0.0561248038
sI110
F0.0502169298
sI114
F0.1092956706
sI123
F0.1004338595
sI636
F0.0856641743
ssS'Or85c'
p114
(dp115
I173
F0.4141939809
sI22
F0.6857317604
sI538
F0.0356120485
sI111
F0.0628085542
sI541
F0.7231311491
sI426
F0.0865987248
sI45
F0.0
sI48
F0.68400831
sI49
F0.0917217365
sI51
F0.1002449103
sI56
F0.1495228757
sI443
F0.7588535664
sI198
F0.0271483778
sI73
F0.1086296692
sI75
F0.17844706
sI204
F0.0509068242
sI952
F0.0509491844
sI217
F0.880342187
sI91
F0.68400831
sI95
F0.6179509726
sI994
F0.0533688016
sI229
F0.091767678
sI239
F0.0781215327
sI114
F0.1255831596
sI116
F0.3328716113
sI380
F0.210724415
sI767
F0.0271062626
ssS'ac2a'
p116
(dp117
I961
F0.0722652075
sI23
F0.1131107596
sI63
F0.0879750353
sI15
F0.0565553798
sI16
F0.034561621
sI536
F0.0534134143
sI21
F0.034561621
sI22
F0.0942589664
sI919
F0.9363057325
sI920
F0.0439875176
sI25
F0.0722652075
sI922
F0.0502714487
sI924
F0.0
sI925
F0.0
sI541
F0.0911170008
sI93
F0.0439875176
sI297
F0.0471294832
sI538
F0.0565553798
sI173
F0.1476723806
sI174
F0.0534134143
sI559
F0.0534134143
sI48
F0.1445304151
sI51
F0.0722652075
sI52
F0.0942589664
sI55
F0.1508143462
sI56
F0.0031419655
sI57
F0.0565553798
sI58
F0.1193946907
sI60
F0.0879750353
sI61
F0.0534134143
sI447
F0.034561621
sI193
F0.0534134143
sI69
F0.0722652075
sI71
F0.0942589664
sI202
F0.0
sI971
F0.0314196555
sI89
F0.0534134143
sI91
F0.034561621
sI314
F0.0062839311
sI229
F0.0502714487
sI956
F0.1225366563
sI109
F0.0534134143
sI110
F0.0565553798
sI114
F0.2230795537
sI123
F0.1476723806
sI636
F0.0911170008
ssS'Or85b'
p118
(dp119
I512
F0.2415428566
sI519
F0.1304939851
sI8
F0.1915290825
sI525
F0.0857254068
sI15
F0.2204566248
sI16
F0.6187336248
sI205
F0.9112021179
sI19
F0.187843169
sI21
F0.1577545758
sI22
F0.8518795937
sI26
F0.0815309696
sI539
F0.6495497612
sI541
F0.7491814421
sI550
F0.1144977153
sI45
F0.0898984175
sI559
F0.1577545758
sI48
F0.6191712586
sI51
F0.1500580302
sI55
F0.2097223273
sI56
F0.1766872324
sI57
F0.9036375551
sI58
F0.1577545758
sI60
F0.1615759878
sI61
F0.8799982964
sI62
F0.2621579249
sI63
F0.8525535574
sI73
F0.0048883064
sI74
F0.055903155
sI75
F0.2960379194
sI78
F0.2240056963
sI83
F0.1383759155
sI84
F0.1653797591
sI91
F0.7588772129
sI93
F0.1383759155
sI95
F0.8866172888
sI99
F0.1422885255
sI107
F0.1185263309
sI112
F0.1729351807
sI114
F0.1653797591
sI116
F0.5875493029
sI123
F0.2133151495
sI124
F0.1225351152
sI141
F0.2923029048
sI145
F0.8903995702
sI155
F0.0688170955
sI160
F0.1185263309
sI167
F0.2956010027
sI173
F0.4745927671
sI174
F0.0815309696
sI691
F0.187843169
sI701
F0.5097115396
sI191
F0.1653797591
sI193
F0.4135073119
sI706
F0.1144977153
sI200
F0.3313189928
sI202
F0.0981809599
sI204
F0.0410019112
sI717
F0.1500580302
sI207
F0.1022908909
sI416
F0.1577545758
sI217
F0.7500210603
sI237
F0.187843169
sI239
F0.0669593144
sI254
F0.1500580302
sI767
F0.1104490694
sI768
F0.3021693387
sI785
F0.2164413772
sI808
F0.0857254068
sI297
F0.0773149058
sI312
F0.4716301301
sI374
F0.0515531074
sI380
F0.3756396906
sI904
F0.8960729923
sI407
F0.1144977153
sI405
F0.1422885255
sI919
F0.102267465
sI408
F0.0898984175
sI921
F0.1185263309
sI410
F0.1577545758
sI926
F0.0981809599
sI927
F0.055903155
sI928
F0.1104490694
sI929
F0.2275406044
sI930
F0.094050202
sI931
F0.3631137685
sI933
F0.0602303674
sI934
F0.1841410246
sI935
F0.1461824974
sI936
F0.1383759155
sI938
F0.064534947
sI940
F0.0773149058
sI941
F0.1383759155
sI942
F0.2024914745
sI431
F0.2380624721
sI944
F0.1691660899
sI945
F0.2024914745
sI947
F0.1344444683
sI956
F0.2061145046
sI957
F0.1461824974
sI447
F0.2097223273
sI448
F0.9083654068
sI449
F0.3567908729
sI453
F0.0688170955
sI966
F0.0688170955
sI967
F0.1104490694
sI968
F0.5282441951
sI969
F0.0
sI970
F0.064534947
sI979
F0.187843169
sI980
F0.1422885255
sI994
F0.0181579339
sI500
F0.8837805777
ssS'Or65a'
p120
(dp121
I512
F0.1251487748
sI519
F0.0370502974
sI8
F0.0613447213
sI525
F0.0546298595
sI15
F0.0442325543
sI16
F0.0613447213
sI205
F0.1948087043
sI19
F0.0406686977
sI21
F0.0512101056
sI22
F0.1612104183
sI26
F0.0425486229
sI539
F0.1194412646
sI541
F0.0925438032
sI550
F0.1107692673
sI45
F0.0959726189
sI559
F0.0679089345
sI48
F0.1529973735
sI51
F0.0198156784
sI52
F0.0980906924
sI55
F0.0442325543
sI56
F0.0512101056
sI57
F0.1279822215
sI58
F0.0868500231
sI60
F0.0806484536
sI61
F0.0989701189
sI62
F0.0546298595
sI63
F0.0370502974
sI73
F0.0522787892
sI74
F0.0370502974
sI75
F0.039483858
sI78
F0.0711397416
sI83
F0.033373602
sI84
F0.0512101056
sI91
F0.0837076331
sI93
F0.177962371
sI95
F0.0899136572
sI99
F0.0646445811
sI107
F0.0512101056
sI112
F0.0370502974
sI114
F0.0837620487
sI116
F0.0646445811
sI123
F0.0613447213
sI124
F0.0646445811
sI141
F0.150229337
sI145
F0.1707425138
sI155
F0.0296345092
sI160
F0.0477453049
sI167
F0.0679089345
sI173
F0.046615581
sI174
F0.0679089345
sI178
F0.0084537252
sI691
F0.0775078674
sI701
F0.0837620487
sI191
F0.0546298595
sI193
F0.0959726189
sI706
F0.033373602
sI200
F0.0806484536
sI201
F0.221418084
sI202
F0.0546298595
sI204
F0.0133102002
sI717
F0.0546298595
sI207
F0.0711397416
sI416
F0.0806484536
sI237
F0.0477453049
sI239
F0.041006131
sI254
F0.0989701189
sI767
F0.0
sI768
F0.0646445811
sI808
F0.0546298595
sI297
F0.0477453049
sI312
F0.0711397416
sI374
F0.0512101056
sI380
F0.0969037554
sI904
F0.0806484536
sI407
F0.0442325543
sI405
F0.0646445811
sI919
F0.0512101056
sI408
F0.0679089345
sI921
F0.0546298595
sI410
F0.0296345092
sI926
F0.0406686977
sI927
F0.0646445811
sI928
F0.0711397416
sI929
F0.0837620487
sI930
F0.0837620487
sI931
F0.0679089345
sI933
F0.0646445811
sI934
F0.0512101056
sI935
F0.0442325543
sI936
F0.0370502974
sI938
F0.0477453049
sI940
F0.0512101056
sI941
F0.0546298595
sI942
F0.0711397416
sI431
F0.0546298595
sI944
F0.0743388218
sI945
F0.0646445811
sI947
F0.0679089345
sI956
F0.033373602
sI957
F0.0646445811
sI447
F0.1136755739
sI448
F0.0711397416
sI449
F0.0837620487
sI453
F0.0512101056
sI966
F0.0679089345
sI967
F0.0646445811
sI968
F0.0370502974
sI969
F0.0477453049
sI970
F0.0370502974
sI979
F0.1635226567
sI980
F0.0743388218
sI994
F0.0555730699
sI500
F0.1165660111
ssS'Or74a'
p122
(dp123
I173
F0.3816032463
sI22
F0.236258306
sI538
F0.5216305684
sI111
F0.148808485
sI541
F0.0911488577
sI426
F0.0148703593
sI45
F0.044660553
sI48
F0.0892280976
sI49
F0.0111465851
sI51
F0.113373757
sI56
F0.0650824382
sI443
F0.4894749525
sI198
F0.0129495992
sI73
F0.0541466074
sI75
F0.0464635671
sI204
F0.0
sI952
F0.0148703593
sI217
F0.0686534759
sI91
F0.4206440025
sI95
F0.1656243419
sI994
F0.0667652816
sI229
F0.2456266145
sI239
F0.0148703593
sI114
F0.1415227782
sI116
F0.1600975536
sI380
F0.0391337646
sI767
F0.0
ssS'Or42b'
p124
(dp125
I201
F0.111552902
sI8
F0.111552902
sI111
F0.2324756039
sI109
F0.111552902
sI656
F0.111552902
sI785
F0.111552902
sI367
F0.111552902
sI22
F0.1022378569
sI919
F0.3478514477
sI920
F0.111552902
sI538
F0.0416964619
sI923
F0.111552902
sI541
F0.0923632989
sI164
F0.111552902
sI934
F0.111552902
sI49
F0.0124107391
sI426
F0.1160588585
sI173
F0.1392668319
sI559
F0.111552902
sI48
F0.3509409272
sI945
F0.111552902
sI178
F0.111552902
sI51
F0.0816076755
sI73
F0.8798458073
sI952
F0.0
sI58
F0.111552902
sI443
F0.0734527579
sI191
F0.111552902
sI448
F0.111552902
sI706
F0.111552902
sI198
F0.0291239371
sI972
F0.111552902
sI202
F0.111552902
sI75
F0.6844713778
sI204
F0.1112234515
sI45
F0.1150198091
sI78
F0.8794236031
sI56
F0.1180637691
sI82
F0.111552902
sI979
F0.3478514477
sI217
F0.1478922105
sI91
F0.192018772
sI95
F0.4335694455
sI994
F0.0303191341
sI229
F0.1395004498
sI614
F0.111552902
sI620
F0.111552902
sI237
F0.111552902
sI239
F0.1145500632
sI114
F0.3470671232
sI116
F0.7414505733
sI413
F0.3478514477
sI380
F0.4283520285
sI767
F0.0167009385
ssS'Or42a'
p126
(dp127
I8
F0.0738142581
sI173
F0.6392826386
sI22
F0.5673026883
sI538
F0.0423965904
sI111
F0.0271567522
sI541
F0.130417366
sI426
F0.046517992
sI45
F0.1869733842
sI48
F0.1645399916
sI49
F0.1530104327
sI178
F0.0535306848
sI51
F0.1115410905
sI73
F0.874243937
sI56
F0.3046336692
sI58
F0.08379304
sI443
F0.1822625628
sI706
F0.364448151
sI198
F0.0413686264
sI204
F0.0888921005
sI75
F0.7866810246
sI972
F0.1599916221
sI952
F0.0765438184
sI217
F0.1590528368
sI91
F0.4967648566
sI95
F0.3618238096
sI994
F0.1201378237
sI229
F0.2458077772
sI239
F0.1269641585
sI114
F0.1925993754
sI116
F0.9211009571
sI380
F0.7532820444
sI767
F0.0
ss.